(lp0
(S'cppflags'
p1
ccopy_reg
_reconstructor
p2
(cino.utils
SpaceList
p3
c__builtin__
list
p4
(lp5
S'-mmcu=atmega328p'
p6
aS'-DF_CPU=16000000L'
p7
aS'-DARDUINO=105'
p8
aS'-I/home/gelo/Electronica/arduino-1.0.5/hardware/arduino/cores/arduino'
p9
aS'-ffunction-sections'
p10
aS'-fdata-sections'
p11
aS'-g'
p12
aS'-Os'
p13
aS'-w'
p14
aS'-I/home/gelo/Electronica/arduino-1.0.5/hardware/arduino/variants/standard'
p15
aS'-I/home/gelo/Electronica/arduino-1.0.5/libraries/TimeAlarms'
p16
aS'-Ilib/Rele'
p17
aS'-I/home/gelo/Electronica/arduino-1.0.5/libraries/DS1307RTC'
p18
aS'-I/home/gelo/Electronica/arduino-1.0.5/libraries/Wire'
p19
aS'-I/home/gelo/Electronica/arduino-1.0.5/libraries/Wire/utility'
p20
aS'-I/home/gelo/Electronica/arduino-1.0.5/libraries/Time'
p21
aS'-I/home/gelo/Electronica/arduino-1.0.5/libraries/Time/Examples'
p22
aS'-I/home/gelo/Electronica/arduino-1.0.5/libraries/Time/Examples/TimeSerialDateStrings'
p23
aS'-I/home/gelo/Electronica/arduino-1.0.5/libraries/Time/Examples/TimeSerial'
p24
aS'-I/home/gelo/Electronica/arduino-1.0.5/libraries/Time/Examples/TimeRTCSet'
p25
aS'-I/home/gelo/Electronica/arduino-1.0.5/libraries/Time/Examples/TimeRTCLog'
p26
aS'-I/home/gelo/Electronica/arduino-1.0.5/libraries/Time/Examples/TimeRTC'
p27
aS'-I/home/gelo/Electronica/arduino-1.0.5/libraries/Time/Examples/TimeNTP'
p28
aS'-I/home/gelo/Electronica/arduino-1.0.5/libraries/Time/Examples/TimeGPS'
p29
aS'-I/home/gelo/Electronica/arduino-1.0.5/libraries/Time/Examples/Processing'
p30
aS'-I/home/gelo/Electronica/arduino-1.0.5/libraries/Time/Examples/Processing/SyncArduinoClock'
p31
aS'-I/home/gelo/Electronica/arduino-1.0.5/libraries/Time/Examples/Processing/SyncArduinoClock'
p32
aS'-I/home/gelo/Electronica/arduino-1.0.5/hardware/arduino/cores/arduino'
p33
aS'-I/home/gelo/Electronica/arduino-1.0.5/hardware/arduino/cores/arduino/avr-libc'
p34
atp35
Rp36
tp37
a(S'objcopy'
p38
S'/home/gelo/Electronica/arduino-1.0.5/hardware/tools/avr/bin/avr-objcopy'
p39
tp40
a(S'version.txt'
p41
S'/home/gelo/Electronica/arduino-1.0.5/lib/version.txt'
p42
tp43
a(S'used_libs'
p44
(lp45
S'/home/gelo/Electronica/arduino-1.0.5/libraries/TimeAlarms'
p46
aS'lib/Rele'
p47
aS'/home/gelo/Electronica/arduino-1.0.5/libraries/DS1307RTC'
p48
aS'/home/gelo/Electronica/arduino-1.0.5/libraries/Wire'
p49
aS'/home/gelo/Electronica/arduino-1.0.5/libraries/Time'
p50
aS'/home/gelo/Electronica/arduino-1.0.5/hardware/arduino/cores/arduino'
p51
atp52
a(S'cc'
p53
S'/home/gelo/Electronica/arduino-1.0.5/hardware/tools/avr/bin/avr-gcc'
p54
tp55
a(S'make'
p56
S'/usr/bin/make'
p57
tp58
a(S'build_dir'
p59
S'.build/atmega328p-bb97d15f'
p60
tp61
a(S'arduino_core_dir'
p62
g51
tp63
a(S'boards.txt'
p64
S'/home/gelo/Electronica/arduino-1.0.5/hardware/arduino/boards.txt'
p65
tp66
a(S'cxxflags'
p67
g2
(g3
g4
(lp68
S'-fno-exceptions'
p69
atp70
Rp71
tp72
a(S'arduino_variants_dir'
p73
S'/home/gelo/Electronica/arduino-1.0.5/hardware/arduino/variants'
p74
tp75
a(S'deps'
p76
g2
(g3
g4
(lp77
S'.build/atmega328p-bb97d15f/src/dependencies.d'
p78
aS'.build/atmega328p-bb97d15f/Wire/dependencies.d'
p79
aS'.build/atmega328p-bb97d15f/TimeAlarms/dependencies.d'
p80
aS'.build/atmega328p-bb97d15f/Rele/dependencies.d'
p81
aS'.build/atmega328p-bb97d15f/Time/dependencies.d'
p82
aS'.build/atmega328p-bb97d15f/arduino/dependencies.d'
p83
aS'.build/atmega328p-bb97d15f/DS1307RTC/dependencies.d'
p84
atp85
Rp86
tp87
a(S'ar'
p88
S'/home/gelo/Electronica/arduino-1.0.5/hardware/tools/avr/bin/avr-ar'
p89
tp90
a(S'names'
p91
(dp92
S'cpp'
p93
S'%s.cpp'
p94
sS'obj'
p95
S'%s.o'
p96
sS'deps'
p97
S'%s.d'
p98
sS'lib'
p99
S'lib%s.a'
p100
stp101
a(S'cflags'
p102
g2
(g3
g4
(lp103
tp104
Rp105
tp106
a(S'ldflags'
p107
g2
(g3
g4
(lp108
g6
aS'-Wl,-Os'
p109
aS'-Wl,--gc-sections'
p110
atp111
Rp112
tp113
a(S'arduino_libraries_dir'
p114
S'/home/gelo/Electronica/arduino-1.0.5/libraries'
p115
tp116
a(S'arduino_lib_version'
p117
g2
(cino.environment
Version
p118
c__builtin__
tuple
p119
(I1
I0
I5
tp120
tp121
Rp122
tp123
a(S'arduino_dist_dir'
p124
S'/home/gelo/Electronica/arduino-1.0.5'
p125
tp126
a(S'board_models'
p127
cino.environment
BoardModels
p128
((lp129
(lp130
S'uno'
p131
a(dp132
S'bootloader'
p133
(dp134
S'extended_fuses'
p135
S'0x05'
p136
sS'high_fuses'
p137
S'0xde'
p138
sS'low_fuses'
p139
S'0xff'
p140
sS'lock_bits'
p141
S'0x0F'
p142
sS'file'
p143
S'optiboot_atmega328.hex'
p144
sS'path'
p145
S'optiboot'
p146
sS'unlock_bits'
p147
S'0x3F'
p148
ssS'upload'
p149
(dp150
S'speed'
p151
S'115200'
p152
sS'maximum_size'
p153
S'32256'
p154
sS'protocol'
p155
S'arduino'
p156
ssS'name'
p157
S'Arduino Uno'
p158
sS'build'
p159
(dp160
S'core'
p161
S'arduino'
p162
sS'mcu'
p163
S'atmega328p'
p164
sS'f_cpu'
p165
S'16000000L'
p166
sS'variant'
p167
S'standard'
p168
ssaa(lp169
S'atmega328'
p170
a(dp171
S'bootloader'
p172
(dp173
S'extended_fuses'
p174
S'0x05'
p175
sS'high_fuses'
p176
S'0xDA'
p177
sS'low_fuses'
p178
S'0xFF'
p179
sS'lock_bits'
p180
S'0x0F'
p181
sS'file'
p182
S'ATmegaBOOT_168_atmega328.hex'
p183
sS'path'
p184
S'atmega'
p185
sS'unlock_bits'
p186
S'0x3F'
p187
ssS'upload'
p188
(dp189
S'speed'
p190
S'57600'
p191
sS'maximum_size'
p192
S'30720'
p193
sS'protocol'
p194
S'arduino'
p195
ssS'name'
p196
S'Arduino Duemilanove w/ ATmega328'
p197
sS'build'
p198
(dp199
S'core'
p200
S'arduino'
p201
sS'mcu'
p202
S'atmega328'
p203
sS'f_cpu'
p204
S'16000000L'
p205
sS'variant'
p206
S'standard'
p207
ssaa(lp208
S'atmega328p'
p209
a(dp210
S'bootloader'
p211
(dp212
S'extended_fuses'
p213
S'0x05'
p214
sS'high_fuses'
p215
S'0xDA'
p216
sS'low_fuses'
p217
S'0xFF'
p218
sS'lock_bits'
p219
S'0x0F'
p220
sS'file'
p221
S'ATmegaBOOT_168_atmega328.hex'
p222
sS'path'
p223
S'atmega'
p224
sS'unlock_bits'
p225
S'0x3F'
p226
ssS'upload'
p227
(dp228
S'speed'
p229
S'57600'
p230
sS'maximum_size'
p231
S'30720'
p232
sS'protocol'
p233
S'arduino'
p234
ssS'name'
p235
S'Arduino Duemilanove w/ ATmega328p'
p236
sS'build'
p237
(dp238
S'core'
p239
S'arduino'
p240
sS'mcu'
p241
S'atmega328p'
p242
sS'f_cpu'
p243
S'16000000L'
p244
sS'variant'
p245
S'standard'
p246
ssaa(lp247
S'diecimila'
p248
a(dp249
S'bootloader'
p250
(dp251
S'extended_fuses'
p252
S'0x00'
p253
sS'high_fuses'
p254
S'0xdd'
p255
sS'low_fuses'
p256
S'0xff'
p257
sS'lock_bits'
p258
S'0x0F'
p259
sS'file'
p260
S'ATmegaBOOT_168_diecimila.hex'
p261
sS'path'
p262
S'atmega'
p263
sS'unlock_bits'
p264
S'0x3F'
p265
ssS'upload'
p266
(dp267
S'speed'
p268
S'19200'
p269
sS'maximum_size'
p270
S'14336'
p271
sS'protocol'
p272
S'arduino'
p273
ssS'name'
p274
S'Arduino Diecimila or Duemilanove w/ ATmega168'
p275
sS'build'
p276
(dp277
S'core'
p278
S'arduino'
p279
sS'mcu'
p280
S'atmega168'
p281
sS'f_cpu'
p282
S'16000000L'
p283
sS'variant'
p284
S'standard'
p285
ssaa(lp286
S'nano328'
p287
a(dp288
S'bootloader'
p289
(dp290
S'extended_fuses'
p291
S'0x05'
p292
sS'high_fuses'
p293
S'0xDA'
p294
sS'low_fuses'
p295
S'0xFF'
p296
sS'lock_bits'
p297
S'0x0F'
p298
sS'file'
p299
S'ATmegaBOOT_168_atmega328.hex'
p300
sS'path'
p301
S'atmega'
p302
sS'unlock_bits'
p303
S'0x3F'
p304
ssS'upload'
p305
(dp306
S'speed'
p307
S'57600'
p308
sS'maximum_size'
p309
S'30720'
p310
sS'protocol'
p311
S'arduino'
p312
ssS'name'
p313
S'Arduino Nano w/ ATmega328'
p314
sS'build'
p315
(dp316
S'core'
p317
S'arduino'
p318
sS'mcu'
p319
S'atmega328p'
p320
sS'f_cpu'
p321
S'16000000L'
p322
sS'variant'
p323
S'eightanaloginputs'
p324
ssaa(lp325
S'nano'
p326
a(dp327
S'bootloader'
p328
(dp329
S'extended_fuses'
p330
S'0x00'
p331
sS'high_fuses'
p332
S'0xdd'
p333
sS'low_fuses'
p334
S'0xff'
p335
sS'lock_bits'
p336
S'0x0F'
p337
sS'file'
p338
S'ATmegaBOOT_168_diecimila.hex'
p339
sS'path'
p340
S'atmega'
p341
sS'unlock_bits'
p342
S'0x3F'
p343
ssS'upload'
p344
(dp345
S'speed'
p346
S'19200'
p347
sS'maximum_size'
p348
S'14336'
p349
sS'protocol'
p350
S'arduino'
p351
ssS'name'
p352
S'Arduino Nano w/ ATmega168'
p353
sS'build'
p354
(dp355
S'core'
p356
S'arduino'
p357
sS'mcu'
p358
S'atmega168'
p359
sS'f_cpu'
p360
S'16000000L'
p361
sS'variant'
p362
S'eightanaloginputs'
p363
ssaa(lp364
S'mega2560'
p365
a(dp366
S'bootloader'
p367
(dp368
S'extended_fuses'
p369
S'0xFD'
p370
sS'high_fuses'
p371
S'0xD8'
p372
sS'low_fuses'
p373
S'0xFF'
p374
sS'lock_bits'
p375
S'0x0F'
p376
sS'file'
p377
S'stk500boot_v2_mega2560.hex'
p378
sS'path'
p379
S'stk500v2'
p380
sS'unlock_bits'
p381
S'0x3F'
p382
ssS'upload'
p383
(dp384
S'speed'
p385
S'115200'
p386
sS'maximum_size'
p387
S'258048'
p388
sS'protocol'
p389
S'wiring'
p390
ssS'name'
p391
S'Arduino Mega 2560 or Mega ADK'
p392
sS'build'
p393
(dp394
S'core'
p395
S'arduino'
p396
sS'mcu'
p397
S'atmega2560'
p398
sS'f_cpu'
p399
S'16000000L'
p400
sS'variant'
p401
S'mega'
p402
ssaa(lp403
S'mega'
p404
a(dp405
S'bootloader'
p406
(dp407
S'extended_fuses'
p408
S'0xF5'
p409
sS'high_fuses'
p410
S'0xDA'
p411
sS'low_fuses'
p412
S'0xFF'
p413
sS'lock_bits'
p414
S'0x0F'
p415
sS'file'
p416
S'ATmegaBOOT_168_atmega1280.hex'
p417
sS'path'
p418
S'atmega'
p419
sS'unlock_bits'
p420
S'0x3F'
p421
ssS'upload'
p422
(dp423
S'speed'
p424
S'57600'
p425
sS'maximum_size'
p426
S'126976'
p427
sS'protocol'
p428
S'arduino'
p429
ssS'name'
p430
S'Arduino Mega (ATmega1280)'
p431
sS'build'
p432
(dp433
S'core'
p434
S'arduino'
p435
sS'mcu'
p436
S'atmega1280'
p437
sS'f_cpu'
p438
S'16000000L'
p439
sS'variant'
p440
S'mega'
p441
ssaa(lp442
S'leonardo'
p443
a(dp444
S'bootloader'
p445
(dp446
S'extended_fuses'
p447
S'0xcb'
p448
sS'high_fuses'
p449
S'0xd8'
p450
sS'low_fuses'
p451
S'0xff'
p452
sS'lock_bits'
p453
S'0x2F'
p454
sS'file'
p455
S'Caterina-Leonardo.hex'
p456
sS'path'
p457
S'caterina'
p458
sS'unlock_bits'
p459
S'0x3F'
p460
ssS'upload'
p461
(dp462
S'speed'
p463
S'57600'
p464
sS'maximum_size'
p465
S'28672'
p466
sS'protocol'
p467
S'avr109'
p468
sS'disable_flushing'
p469
S'true'
p470
ssS'name'
p471
S'Arduino Leonardo'
p472
sS'build'
p473
(dp474
S'core'
p475
S'arduino'
p476
sS'f_cpu'
p477
S'16000000L'
p478
sS'vid'
p479
S'0x2341'
p480
sS'pid'
p481
S'0x8036'
p482
sS'variant'
p483
S'leonardo'
p484
sS'mcu'
p485
S'atmega32u4'
p486
ssaa(lp487
S'esplora'
p488
a(dp489
S'bootloader'
p490
(dp491
S'extended_fuses'
p492
S'0xcb'
p493
sS'high_fuses'
p494
S'0xd8'
p495
sS'low_fuses'
p496
S'0xff'
p497
sS'lock_bits'
p498
S'0x2F'
p499
sS'file'
p500
S'Caterina-Esplora.hex'
p501
sS'path'
p502
S'caterina'
p503
sS'unlock_bits'
p504
S'0x3F'
p505
ssS'upload'
p506
(dp507
S'speed'
p508
S'57600'
p509
sS'maximum_size'
p510
S'28672'
p511
sS'protocol'
p512
S'avr109'
p513
sS'disable_flushing'
p514
S'true'
p515
ssS'name'
p516
S'Arduino Esplora'
p517
sS'build'
p518
(dp519
S'core'
p520
S'arduino'
p521
sS'f_cpu'
p522
S'16000000L'
p523
sS'vid'
p524
S'0x2341'
p525
sS'pid'
p526
S'0x803C'
p527
sS'variant'
p528
S'leonardo'
p529
sS'mcu'
p530
S'atmega32u4'
p531
ssaa(lp532
S'micro'
p533
a(dp534
S'bootloader'
p535
(dp536
S'extended_fuses'
p537
S'0xcb'
p538
sS'high_fuses'
p539
S'0xd8'
p540
sS'low_fuses'
p541
S'0xff'
p542
sS'lock_bits'
p543
S'0x2F'
p544
sS'file'
p545
S'Caterina-Micro.hex'
p546
sS'path'
p547
S'caterina'
p548
sS'unlock_bits'
p549
S'0x3F'
p550
ssS'upload'
p551
(dp552
S'speed'
p553
S'57600'
p554
sS'maximum_size'
p555
S'28672'
p556
sS'protocol'
p557
S'avr109'
p558
sS'disable_flushing'
p559
S'true'
p560
ssS'name'
p561
S'Arduino Micro'
p562
sS'build'
p563
(dp564
S'core'
p565
S'arduino'
p566
sS'f_cpu'
p567
S'16000000L'
p568
sS'vid'
p569
S'0x2341'
p570
sS'pid'
p571
S'0x8037'
p572
sS'variant'
p573
S'micro'
p574
sS'mcu'
p575
S'atmega32u4'
p576
ssaa(lp577
S'mini328'
p578
a(dp579
S'bootloader'
p580
(dp581
S'extended_fuses'
p582
S'0x05'
p583
sS'high_fuses'
p584
S'0xd8'
p585
sS'low_fuses'
p586
S'0xff'
p587
sS'lock_bits'
p588
S'0x0F'
p589
sS'file'
p590
S'optiboot_atmega328-Mini.hex'
p591
sS'path'
p592
S'optiboot'
p593
sS'unlock_bits'
p594
S'0x3F'
p595
ssS'upload'
p596
(dp597
S'speed'
p598
S'115200'
p599
sS'maximum_size'
p600
S'28672'
p601
sS'protocol'
p602
S'arduino'
p603
ssS'name'
p604
S'Arduino Mini w/ ATmega328'
p605
sS'build'
p606
(dp607
S'core'
p608
S'arduino'
p609
sS'mcu'
p610
S'atmega328p'
p611
sS'f_cpu'
p612
S'16000000L'
p613
sS'variant'
p614
S'eightanaloginputs'
p615
ssaa(lp616
S'mini'
p617
a(dp618
S'bootloader'
p619
(dp620
S'extended_fuses'
p621
S'0x00'
p622
sS'high_fuses'
p623
S'0xdd'
p624
sS'low_fuses'
p625
S'0xff'
p626
sS'lock_bits'
p627
S'0x0F'
p628
sS'file'
p629
S'ATmegaBOOT_168_ng.hex'
p630
sS'path'
p631
S'atmega'
p632
sS'unlock_bits'
p633
S'0x3F'
p634
ssS'upload'
p635
(dp636
S'speed'
p637
S'19200'
p638
sS'maximum_size'
p639
S'14336'
p640
sS'protocol'
p641
S'arduino'
p642
ssS'name'
p643
S'Arduino Mini w/ ATmega168'
p644
sS'build'
p645
(dp646
S'core'
p647
S'arduino'
p648
sS'mcu'
p649
S'atmega168'
p650
sS'f_cpu'
p651
S'16000000L'
p652
sS'variant'
p653
S'eightanaloginputs'
p654
ssaa(lp655
S'ethernet'
p656
a(dp657
S'bootloader'
p658
(dp659
S'extended_fuses'
p660
S'0x05'
p661
sS'high_fuses'
p662
S'0xde'
p663
sS'low_fuses'
p664
S'0xff'
p665
sS'lock_bits'
p666
S'0x0F'
p667
sS'file'
p668
S'optiboot_atmega328.hex'
p669
sS'path'
p670
S'optiboot'
p671
sS'unlock_bits'
p672
S'0x3F'
p673
ssS'upload'
p674
(dp675
S'speed'
p676
S'115200'
p677
sS'maximum_size'
p678
S'32256'
p679
sS'protocol'
p680
S'arduino'
p681
ssS'name'
p682
S'Arduino Ethernet'
p683
sS'build'
p684
(dp685
S'f_cpu'
p686
S'16000000L'
p687
sS'mcu'
p688
S'atmega328p'
p689
sS'variant'
p690
S'standard'
p691
sS'core'
p692
S'arduino'
p693
ssaa(lp694
S'fio'
p695
a(dp696
S'bootloader'
p697
(dp698
S'extended_fuses'
p699
S'0x05'
p700
sS'high_fuses'
p701
S'0xDA'
p702
sS'low_fuses'
p703
S'0xFF'
p704
sS'lock_bits'
p705
S'0x0F'
p706
sS'file'
p707
S'ATmegaBOOT_168_atmega328_pro_8MHz.hex'
p708
sS'path'
p709
S'arduino:atmega'
p710
sS'unlock_bits'
p711
S'0x3F'
p712
ssS'upload'
p713
(dp714
S'speed'
p715
S'57600'
p716
sS'maximum_size'
p717
S'30720'
p718
sS'protocol'
p719
S'arduino'
p720
ssS'name'
p721
S'Arduino Fio'
p722
sS'build'
p723
(dp724
S'core'
p725
S'arduino'
p726
sS'mcu'
p727
S'atmega328p'
p728
sS'f_cpu'
p729
S'8000000L'
p730
sS'variant'
p731
S'eightanaloginputs'
p732
ssaa(lp733
S'bt328'
p734
a(dp735
S'bootloader'
p736
(dp737
S'extended_fuses'
p738
S'0x05'
p739
sS'high_fuses'
p740
S'0xd8'
p741
sS'low_fuses'
p742
S'0xff'
p743
sS'lock_bits'
p744
S'0x0F'
p745
sS'file'
p746
S'ATmegaBOOT_168_atmega328_bt.hex'
p747
sS'path'
p748
S'bt'
p749
sS'unlock_bits'
p750
S'0x3F'
p751
ssS'upload'
p752
(dp753
S'speed'
p754
S'19200'
p755
sS'maximum_size'
p756
S'28672'
p757
sS'protocol'
p758
S'arduino'
p759
sS'disable_flushing'
p760
S'true'
p761
ssS'name'
p762
S'Arduino BT w/ ATmega328'
p763
sS'build'
p764
(dp765
S'core'
p766
S'arduino'
p767
sS'mcu'
p768
S'atmega328p'
p769
sS'f_cpu'
p770
S'16000000L'
p771
sS'variant'
p772
S'eightanaloginputs'
p773
ssaa(lp774
S'bt'
p775
a(dp776
S'bootloader'
p777
(dp778
S'extended_fuses'
p779
S'0x00'
p780
sS'high_fuses'
p781
S'0xdd'
p782
sS'low_fuses'
p783
S'0xff'
p784
sS'lock_bits'
p785
S'0x0F'
p786
sS'file'
p787
S'ATmegaBOOT_168.hex'
p788
sS'path'
p789
S'bt'
p790
sS'unlock_bits'
p791
S'0x3F'
p792
ssS'upload'
p793
(dp794
S'speed'
p795
S'19200'
p796
sS'maximum_size'
p797
S'14336'
p798
sS'protocol'
p799
S'arduino'
p800
sS'disable_flushing'
p801
S'true'
p802
ssS'name'
p803
S'Arduino BT w/ ATmega168'
p804
sS'build'
p805
(dp806
S'core'
p807
S'arduino'
p808
sS'mcu'
p809
S'atmega168'
p810
sS'f_cpu'
p811
S'16000000L'
p812
sS'variant'
p813
S'eightanaloginputs'
p814
ssaa(lp815
S'LilyPadUSB'
p816
a(dp817
S'bootloader'
p818
(dp819
S'extended_fuses'
p820
S'0xce'
p821
sS'high_fuses'
p822
S'0xd8'
p823
sS'low_fuses'
p824
S'0xff'
p825
sS'lock_bits'
p826
S'0x2F'
p827
sS'file'
p828
S'Caterina-LilyPadUSB.hex'
p829
sS'path'
p830
S'caterina-LilyPadUSB'
p831
sS'unlock_bits'
p832
S'0x3F'
p833
ssS'upload'
p834
(dp835
S'speed'
p836
S'57600'
p837
sS'maximum_size'
p838
S'28672'
p839
sS'protocol'
p840
S'avr109'
p841
sS'disable_flushing'
p842
S'true'
p843
ssS'name'
p844
S'LilyPad Arduino USB'
p845
sS'build'
p846
(dp847
S'core'
p848
S'arduino'
p849
sS'f_cpu'
p850
S'8000000L'
p851
sS'vid'
p852
S'0x1B4F'
p853
sS'pid'
p854
S'0x9208'
p855
sS'variant'
p856
S'leonardo'
p857
sS'mcu'
p858
S'atmega32u4'
p859
ssaa(lp860
S'lilypad328'
p861
a(dp862
S'bootloader'
p863
(dp864
S'extended_fuses'
p865
S'0x05'
p866
sS'high_fuses'
p867
S'0xDA'
p868
sS'low_fuses'
p869
S'0xFF'
p870
sS'lock_bits'
p871
S'0x0F'
p872
sS'file'
p873
S'ATmegaBOOT_168_atmega328_pro_8MHz.hex'
p874
sS'path'
p875
S'atmega'
p876
sS'unlock_bits'
p877
S'0x3F'
p878
ssS'upload'
p879
(dp880
S'speed'
p881
S'57600'
p882
sS'maximum_size'
p883
S'30720'
p884
sS'protocol'
p885
S'arduino'
p886
ssS'name'
p887
S'LilyPad Arduino w/ ATmega328'
p888
sS'build'
p889
(dp890
S'core'
p891
S'arduino'
p892
sS'mcu'
p893
S'atmega328p'
p894
sS'f_cpu'
p895
S'8000000L'
p896
sS'variant'
p897
S'standard'
p898
ssaa(lp899
S'lilypad'
p900
a(dp901
S'bootloader'
p902
(dp903
S'extended_fuses'
p904
S'0x00'
p905
sS'high_fuses'
p906
S'0xdd'
p907
sS'low_fuses'
p908
S'0xe2'
p909
sS'lock_bits'
p910
S'0x0F'
p911
sS'file'
p912
S'LilyPadBOOT_168.hex'
p913
sS'path'
p914
S'lilypad'
p915
sS'unlock_bits'
p916
S'0x3F'
p917
ssS'upload'
p918
(dp919
S'speed'
p920
S'19200'
p921
sS'maximum_size'
p922
S'14336'
p923
sS'protocol'
p924
S'arduino'
p925
ssS'name'
p926
S'LilyPad Arduino w/ ATmega168'
p927
sS'build'
p928
(dp929
S'core'
p930
S'arduino'
p931
sS'mcu'
p932
S'atmega168'
p933
sS'f_cpu'
p934
S'8000000L'
p935
sS'variant'
p936
S'standard'
p937
ssaa(lp938
S'pro5v328'
p939
a(dp940
S'bootloader'
p941
(dp942
S'extended_fuses'
p943
S'0x05'
p944
sS'high_fuses'
p945
S'0xDA'
p946
sS'low_fuses'
p947
S'0xFF'
p948
sS'lock_bits'
p949
S'0x0F'
p950
sS'file'
p951
S'ATmegaBOOT_168_atmega328.hex'
p952
sS'path'
p953
S'atmega'
p954
sS'unlock_bits'
p955
S'0x3F'
p956
ssS'upload'
p957
(dp958
S'speed'
p959
S'57600'
p960
sS'maximum_size'
p961
S'30720'
p962
sS'protocol'
p963
S'arduino'
p964
ssS'name'
p965
S'Arduino Pro or Pro Mini (5V, 16 MHz) w/ ATmega328'
p966
sS'build'
p967
(dp968
S'core'
p969
S'arduino'
p970
sS'mcu'
p971
S'atmega328p'
p972
sS'f_cpu'
p973
S'16000000L'
p974
sS'variant'
p975
S'standard'
p976
ssaa(lp977
S'pro5v'
p978
a(dp979
S'bootloader'
p980
(dp981
S'extended_fuses'
p982
S'0x00'
p983
sS'high_fuses'
p984
S'0xdd'
p985
sS'low_fuses'
p986
S'0xff'
p987
sS'lock_bits'
p988
S'0x0F'
p989
sS'file'
p990
S'ATmegaBOOT_168_diecimila.hex'
p991
sS'path'
p992
S'atmega'
p993
sS'unlock_bits'
p994
S'0x3F'
p995
ssS'upload'
p996
(dp997
S'speed'
p998
S'19200'
p999
sS'maximum_size'
p1000
S'14336'
p1001
sS'protocol'
p1002
S'arduino'
p1003
ssS'name'
p1004
S'Arduino Pro or Pro Mini (5V, 16 MHz) w/ ATmega168'
p1005
sS'build'
p1006
(dp1007
S'core'
p1008
S'arduino'
p1009
sS'mcu'
p1010
S'atmega168'
p1011
sS'f_cpu'
p1012
S'16000000L'
p1013
sS'variant'
p1014
S'standard'
p1015
ssaa(lp1016
S'pro328'
p1017
a(dp1018
S'bootloader'
p1019
(dp1020
S'extended_fuses'
p1021
S'0x05'
p1022
sS'high_fuses'
p1023
S'0xDA'
p1024
sS'low_fuses'
p1025
S'0xFF'
p1026
sS'lock_bits'
p1027
S'0x0F'
p1028
sS'file'
p1029
S'ATmegaBOOT_168_atmega328_pro_8MHz.hex'
p1030
sS'path'
p1031
S'atmega'
p1032
sS'unlock_bits'
p1033
S'0x3F'
p1034
ssS'upload'
p1035
(dp1036
S'speed'
p1037
S'57600'
p1038
sS'maximum_size'
p1039
S'30720'
p1040
sS'protocol'
p1041
S'arduino'
p1042
ssS'name'
p1043
S'Arduino Pro or Pro Mini (3.3V, 8 MHz) w/ ATmega328'
p1044
sS'build'
p1045
(dp1046
S'core'
p1047
S'arduino'
p1048
sS'mcu'
p1049
S'atmega328p'
p1050
sS'f_cpu'
p1051
S'8000000L'
p1052
sS'variant'
p1053
S'standard'
p1054
ssaa(lp1055
S'pro'
p1056
a(dp1057
S'bootloader'
p1058
(dp1059
S'extended_fuses'
p1060
S'0x00'
p1061
sS'high_fuses'
p1062
S'0xdd'
p1063
sS'low_fuses'
p1064
S'0xc6'
p1065
sS'lock_bits'
p1066
S'0x0F'
p1067
sS'file'
p1068
S'ATmegaBOOT_168_pro_8MHz.hex'
p1069
sS'path'
p1070
S'atmega'
p1071
sS'unlock_bits'
p1072
S'0x3F'
p1073
ssS'upload'
p1074
(dp1075
S'speed'
p1076
S'19200'
p1077
sS'maximum_size'
p1078
S'14336'
p1079
sS'protocol'
p1080
S'arduino'
p1081
ssS'name'
p1082
S'Arduino Pro or Pro Mini (3.3V, 8 MHz) w/ ATmega168'
p1083
sS'build'
p1084
(dp1085
S'core'
p1086
S'arduino'
p1087
sS'mcu'
p1088
S'atmega168'
p1089
sS'f_cpu'
p1090
S'8000000L'
p1091
sS'variant'
p1092
S'standard'
p1093
ssaa(lp1094
S'atmega168'
p1095
a(dp1096
S'bootloader'
p1097
(dp1098
S'extended_fuses'
p1099
S'0x00'
p1100
sS'high_fuses'
p1101
S'0xdd'
p1102
sS'low_fuses'
p1103
S'0xff'
p1104
sS'lock_bits'
p1105
S'0x0F'
p1106
sS'file'
p1107
S'ATmegaBOOT_168_ng.hex'
p1108
sS'path'
p1109
S'atmega'
p1110
sS'unlock_bits'
p1111
S'0x3F'
p1112
ssS'upload'
p1113
(dp1114
S'speed'
p1115
S'19200'
p1116
sS'maximum_size'
p1117
S'14336'
p1118
sS'protocol'
p1119
S'arduino'
p1120
ssS'name'
p1121
S'Arduino NG or older w/ ATmega168'
p1122
sS'build'
p1123
(dp1124
S'core'
p1125
S'arduino'
p1126
sS'mcu'
p1127
S'atmega168'
p1128
sS'f_cpu'
p1129
S'16000000L'
p1130
sS'variant'
p1131
S'standard'
p1132
ssaa(lp1133
S'atmega8'
p1134
a(dp1135
S'bootloader'
p1136
(dp1137
S'high_fuses'
p1138
S'0xca'
p1139
sS'low_fuses'
p1140
S'0xdf'
p1141
sS'lock_bits'
p1142
S'0x0F'
p1143
sS'file'
p1144
S'ATmegaBOOT-prod-firmware-2009-11-07.hex'
p1145
sS'path'
p1146
S'atmega8'
p1147
sS'unlock_bits'
p1148
S'0x3F'
p1149
ssS'upload'
p1150
(dp1151
S'speed'
p1152
S'19200'
p1153
sS'maximum_size'
p1154
S'7168'
p1155
sS'protocol'
p1156
S'arduino'
p1157
ssS'name'
p1158
S'Arduino NG or older w/ ATmega8'
p1159
sS'build'
p1160
(dp1161
S'core'
p1162
S'arduino'
p1163
sS'mcu'
p1164
S'atmega8'
p1165
sS'f_cpu'
p1166
S'16000000L'
p1167
sS'variant'
p1168
S'standard'
p1169
ssaa(lp1170
S'robotControl'
p1171
a(dp1172
S'bootloader'
p1173
(dp1174
S'extended_fuses'
p1175
S'0xcb'
p1176
sS'high_fuses'
p1177
S'0xd8'
p1178
sS'low_fuses'
p1179
S'0xff'
p1180
sS'lock_bits'
p1181
S'0x2F'
p1182
sS'file'
p1183
S'Caterina-Robot-Control.hex'
p1184
sS'path'
p1185
S'caterina-Arduino_Robot'
p1186
sS'unlock_bits'
p1187
S'0x3F'
p1188
ssS'upload'
p1189
(dp1190
S'speed'
p1191
S'57600'
p1192
sS'maximum_size'
p1193
S'28672'
p1194
sS'protocol'
p1195
S'avr109'
p1196
sS'disable_flushing'
p1197
S'true'
p1198
ssS'name'
p1199
S'Arduino Robot Control'
p1200
sS'build'
p1201
(dp1202
S'core'
p1203
S'robot'
p1204
sS'f_cpu'
p1205
S'16000000L'
p1206
sS'vid'
p1207
S'0x2341'
p1208
sS'pid'
p1209
S'0x8038'
p1210
sS'variant'
p1211
S'robot_control'
p1212
sS'mcu'
p1213
S'atmega32u4'
p1214
ssaa(lp1215
S'robotMotor'
p1216
a(dp1217
S'bootloader'
p1218
(dp1219
S'extended_fuses'
p1220
S'0xcb'
p1221
sS'high_fuses'
p1222
S'0xd8'
p1223
sS'low_fuses'
p1224
S'0xff'
p1225
sS'lock_bits'
p1226
S'0x2F'
p1227
sS'file'
p1228
S'Caterina-Robot-Motor.hex'
p1229
sS'path'
p1230
S'caterina-Arduino_Robot'
p1231
sS'unlock_bits'
p1232
S'0x3F'
p1233
ssS'upload'
p1234
(dp1235
S'speed'
p1236
S'57600'
p1237
sS'maximum_size'
p1238
S'28672'
p1239
sS'protocol'
p1240
S'avr109'
p1241
sS'disable_flushing'
p1242
S'true'
p1243
ssS'name'
p1244
S'Arduino Robot Motor'
p1245
sS'build'
p1246
(dp1247
S'core'
p1248
S'robot'
p1249
sS'f_cpu'
p1250
S'16000000L'
p1251
sS'vid'
p1252
S'0x2341'
p1253
sS'pid'
p1254
S'0x8039'
p1255
sS'variant'
p1256
S'robot_motor'
p1257
sS'mcu'
p1258
S'atmega32u4'
p1259
ssaatp1260
Rp1261
(dp1262
S'default'
p1263
S'uno'
p1264
sbtp1265
a(S'cxx'
p1266
S'/home/gelo/Electronica/arduino-1.0.5/hardware/tools/avr/bin/avr-g++'
p1267
tp1268
a.