(lp0
(S'cppflags'
p1
ccopy_reg
_reconstructor
p2
(cino.utils
SpaceList
p3
c__builtin__
list
p4
(lp5
S'-mmcu=atmega328p'
p6
aS'-DF_CPU=16000000L'
p7
aS'-DARDUINO=105'
p8
aS'-I/home/gelo/Electronica/arduino-1.0.5/hardware/arduino/cores/arduino'
p9
aS'-ffunction-sections'
p10
aS'-fdata-sections'
p11
aS'-g'
p12
aS'-Os'
p13
aS'-w'
p14
aS'-I/home/gelo/Electronica/arduino-1.0.5/hardware/arduino/variants/standard'
p15
aS'-I/home/gelo/Electronica/arduino-1.0.5/libraries/TimeAlarms'
p16
aS'-Ilib/Rele'
p17
aS'-I/home/gelo/Electronica/arduino-1.0.5/libraries/DS1307RTC'
p18
aS'-I/home/gelo/Electronica/arduino-1.0.5/libraries/Wire'
p19
aS'-I/home/gelo/Electronica/arduino-1.0.5/libraries/Wire/utility'
p20
aS'-I/home/gelo/Electronica/arduino-1.0.5/libraries/Time'
p21
aS'-I/home/gelo/Electronica/arduino-1.0.5/libraries/Time/Examples'
p22
aS'-I/home/gelo/Electronica/arduino-1.0.5/libraries/Time/Examples/TimeSerialDateStrings'
p23
aS'-I/home/gelo/Electronica/arduino-1.0.5/libraries/Time/Examples/TimeSerial'
p24
aS'-I/home/gelo/Electronica/arduino-1.0.5/libraries/Time/Examples/TimeRTCSet'
p25
aS'-I/home/gelo/Electronica/arduino-1.0.5/libraries/Time/Examples/TimeRTCLog'
p26
aS'-I/home/gelo/Electronica/arduino-1.0.5/libraries/Time/Examples/TimeRTC'
p27
aS'-I/home/gelo/Electronica/arduino-1.0.5/libraries/Time/Examples/TimeNTP'
p28
aS'-I/home/gelo/Electronica/arduino-1.0.5/libraries/Time/Examples/TimeGPS'
p29
aS'-I/home/gelo/Electronica/arduino-1.0.5/libraries/Time/Examples/Processing'
p30
aS'-I/home/gelo/Electronica/arduino-1.0.5/libraries/Time/Examples/Processing/SyncArduinoClock'
p31
aS'-I/home/gelo/Electronica/arduino-1.0.5/libraries/Time/Examples/Processing/SyncArduinoClock'
p32
aS'-I/home/gelo/Electronica/arduino-1.0.5/hardware/arduino/cores/arduino'
p33
aS'-I/home/gelo/Electronica/arduino-1.0.5/hardware/arduino/cores/arduino/avr-libc'
p34
atp35
Rp36
tp37
a(S'objcopy'
p38
S'/home/gelo/Electronica/arduino-1.0.5/hardware/tools/avr/bin/avr-objcopy'
p39
tp40
a(S'version.txt'
p41
S'/home/gelo/Electronica/arduino-1.0.5/lib/version.txt'
p42
tp43
a(S'used_libs'
p44
(lp45
S'/home/gelo/Electronica/arduino-1.0.5/libraries/TimeAlarms'
p46
aS'lib/Rele'
p47
aS'/home/gelo/Electronica/arduino-1.0.5/libraries/DS1307RTC'
p48
aS'/home/gelo/Electronica/arduino-1.0.5/libraries/Wire'
p49
aS'/home/gelo/Electronica/arduino-1.0.5/libraries/Time'
p50
aS'/home/gelo/Electronica/arduino-1.0.5/hardware/arduino/cores/arduino'
p51
atp52
a(S'cc'
p53
S'/home/gelo/Electronica/arduino-1.0.5/hardware/tools/avr/bin/avr-gcc'
p54
tp55
a(S'make'
p56
S'/usr/bin/make'
p57
tp58
a(S'build_dir'
p59
S'.build/atmega328p-bb97d15f'
p60
tp61
a(S'arduino_core_dir'
p62
g51
tp63
a(S'boards.txt'
p64
S'/home/gelo/Electronica/arduino-1.0.5/hardware/arduino/boards.txt'
p65
tp66
a(S'cxxflags'
p67
g2
(g3
g4
(lp68
S'-fno-exceptions'
p69
atp70
Rp71
tp72
a(S'arduino_variants_dir'
p73
S'/home/gelo/Electronica/arduino-1.0.5/hardware/arduino/variants'
p74
tp75
a(S'deps'
p76
g2
(g3
g4
(lp77
S'.build/atmega328p-bb97d15f/src/dependencies.d'
p78
aS'.build/atmega328p-bb97d15f/Wire/dependencies.d'
p79
aS'.build/atmega328p-bb97d15f/TimeAlarms/dependencies.d'
p80
aS'.build/atmega328p-bb97d15f/Rele/dependencies.d'
p81
aS'.build/atmega328p-bb97d15f/Time/dependencies.d'
p82
aS'.build/atmega328p-bb97d15f/arduino/dependencies.d'
p83
aS'.build/atmega328p-bb97d15f/DS1307RTC/dependencies.d'
p84
atp85
Rp86
tp87
a(S'ar'
p88
S'/home/gelo/Electronica/arduino-1.0.5/hardware/tools/avr/bin/avr-ar'
p89
tp90
a(S'names'
p91
(dp92
S'cpp'
p93
S'%s.cpp'
p94
sS'obj'
p95
S'%s.o'
p96
sg76
S'%s.d'
p97
sS'lib'
p98
S'lib%s.a'
p99
stp100
a(S'cflags'
p101
g2
(g3
g4
(lp102
tp103
Rp104
tp105
a(S'ldflags'
p106
g2
(g3
g4
(lp107
g6
aS'-Wl,-Os'
p108
aS'-Wl,--gc-sections'
p109
atp110
Rp111
tp112
a(S'arduino_libraries_dir'
p113
S'/home/gelo/Electronica/arduino-1.0.5/libraries'
p114
tp115
a(S'arduino_lib_version'
p116
g2
(cino.environment
Version
p117
c__builtin__
tuple
p118
(I1
I0
I5
tp119
tp120
Rp121
tp122
a(S'arduino_dist_dir'
p123
S'/home/gelo/Electronica/arduino-1.0.5'
p124
tp125
a(S'board_models'
p126
cino.environment
BoardModels
p127
((lp128
(lp129
S'uno'
p130
a(dp131
S'build'
p132
(dp133
S'core'
p134
S'arduino'
p135
sS'mcu'
p136
S'atmega328p'
p137
sS'f_cpu'
p138
S'16000000L'
p139
sS'variant'
p140
S'standard'
p141
ssS'bootloader'
p142
(dp143
S'extended_fuses'
p144
S'0x05'
p145
sS'high_fuses'
p146
S'0xde'
p147
sS'low_fuses'
p148
S'0xff'
p149
sS'lock_bits'
p150
S'0x0F'
p151
sS'file'
p152
S'optiboot_atmega328.hex'
p153
sS'path'
p154
S'optiboot'
p155
sS'unlock_bits'
p156
S'0x3F'
p157
ssS'name'
p158
S'Arduino Uno'
p159
sS'upload'
p160
(dp161
S'speed'
p162
S'115200'
p163
sS'maximum_size'
p164
S'32256'
p165
sS'protocol'
p166
S'arduino'
p167
ssaa(lp168
S'atmega328'
p169
a(dp170
S'build'
p171
(dp172
S'core'
p173
S'arduino'
p174
sS'mcu'
p175
S'atmega328'
p176
sS'f_cpu'
p177
S'16000000L'
p178
sS'variant'
p179
S'standard'
p180
ssS'bootloader'
p181
(dp182
S'extended_fuses'
p183
S'0x05'
p184
sS'high_fuses'
p185
S'0xDA'
p186
sS'low_fuses'
p187
S'0xFF'
p188
sS'lock_bits'
p189
S'0x0F'
p190
sS'file'
p191
S'ATmegaBOOT_168_atmega328.hex'
p192
sS'path'
p193
S'atmega'
p194
sS'unlock_bits'
p195
S'0x3F'
p196
ssS'name'
p197
S'Arduino Duemilanove w/ ATmega328'
p198
sS'upload'
p199
(dp200
S'speed'
p201
S'57600'
p202
sS'maximum_size'
p203
S'30720'
p204
sS'protocol'
p205
S'arduino'
p206
ssaa(lp207
S'atmega328p'
p208
a(dp209
S'build'
p210
(dp211
S'core'
p212
S'arduino'
p213
sS'mcu'
p214
S'atmega328p'
p215
sS'f_cpu'
p216
S'16000000L'
p217
sS'variant'
p218
S'standard'
p219
ssS'bootloader'
p220
(dp221
S'extended_fuses'
p222
S'0x05'
p223
sS'high_fuses'
p224
S'0xDA'
p225
sS'low_fuses'
p226
S'0xFF'
p227
sS'lock_bits'
p228
S'0x0F'
p229
sS'file'
p230
S'ATmegaBOOT_168_atmega328.hex'
p231
sS'path'
p232
S'atmega'
p233
sS'unlock_bits'
p234
S'0x3F'
p235
ssS'name'
p236
S'Arduino Duemilanove w/ ATmega328p'
p237
sS'upload'
p238
(dp239
S'speed'
p240
S'57600'
p241
sS'maximum_size'
p242
S'30720'
p243
sS'protocol'
p244
S'arduino'
p245
ssaa(lp246
S'diecimila'
p247
a(dp248
S'build'
p249
(dp250
S'core'
p251
S'arduino'
p252
sS'mcu'
p253
S'atmega168'
p254
sS'f_cpu'
p255
S'16000000L'
p256
sS'variant'
p257
S'standard'
p258
ssS'bootloader'
p259
(dp260
S'extended_fuses'
p261
S'0x00'
p262
sS'high_fuses'
p263
S'0xdd'
p264
sS'low_fuses'
p265
S'0xff'
p266
sS'lock_bits'
p267
S'0x0F'
p268
sS'file'
p269
S'ATmegaBOOT_168_diecimila.hex'
p270
sS'path'
p271
S'atmega'
p272
sS'unlock_bits'
p273
S'0x3F'
p274
ssS'name'
p275
S'Arduino Diecimila or Duemilanove w/ ATmega168'
p276
sS'upload'
p277
(dp278
S'speed'
p279
S'19200'
p280
sS'maximum_size'
p281
S'14336'
p282
sS'protocol'
p283
S'arduino'
p284
ssaa(lp285
S'nano328'
p286
a(dp287
S'build'
p288
(dp289
S'core'
p290
S'arduino'
p291
sS'mcu'
p292
S'atmega328p'
p293
sS'f_cpu'
p294
S'16000000L'
p295
sS'variant'
p296
S'eightanaloginputs'
p297
ssS'bootloader'
p298
(dp299
S'extended_fuses'
p300
S'0x05'
p301
sS'high_fuses'
p302
S'0xDA'
p303
sS'low_fuses'
p304
S'0xFF'
p305
sS'lock_bits'
p306
S'0x0F'
p307
sS'file'
p308
S'ATmegaBOOT_168_atmega328.hex'
p309
sS'path'
p310
S'atmega'
p311
sS'unlock_bits'
p312
S'0x3F'
p313
ssS'name'
p314
S'Arduino Nano w/ ATmega328'
p315
sS'upload'
p316
(dp317
S'speed'
p318
S'57600'
p319
sS'maximum_size'
p320
S'30720'
p321
sS'protocol'
p322
S'arduino'
p323
ssaa(lp324
S'nano'
p325
a(dp326
S'build'
p327
(dp328
S'core'
p329
S'arduino'
p330
sS'mcu'
p331
S'atmega168'
p332
sS'f_cpu'
p333
S'16000000L'
p334
sS'variant'
p335
S'eightanaloginputs'
p336
ssS'bootloader'
p337
(dp338
S'extended_fuses'
p339
S'0x00'
p340
sS'high_fuses'
p341
S'0xdd'
p342
sS'low_fuses'
p343
S'0xff'
p344
sS'lock_bits'
p345
S'0x0F'
p346
sS'file'
p347
S'ATmegaBOOT_168_diecimila.hex'
p348
sS'path'
p349
S'atmega'
p350
sS'unlock_bits'
p351
S'0x3F'
p352
ssS'name'
p353
S'Arduino Nano w/ ATmega168'
p354
sS'upload'
p355
(dp356
S'speed'
p357
S'19200'
p358
sS'maximum_size'
p359
S'14336'
p360
sS'protocol'
p361
S'arduino'
p362
ssaa(lp363
S'mega2560'
p364
a(dp365
S'build'
p366
(dp367
S'core'
p368
S'arduino'
p369
sS'mcu'
p370
S'atmega2560'
p371
sS'f_cpu'
p372
S'16000000L'
p373
sS'variant'
p374
S'mega'
p375
ssS'bootloader'
p376
(dp377
S'extended_fuses'
p378
S'0xFD'
p379
sS'high_fuses'
p380
S'0xD8'
p381
sS'low_fuses'
p382
S'0xFF'
p383
sS'lock_bits'
p384
S'0x0F'
p385
sS'file'
p386
S'stk500boot_v2_mega2560.hex'
p387
sS'path'
p388
S'stk500v2'
p389
sS'unlock_bits'
p390
S'0x3F'
p391
ssS'name'
p392
S'Arduino Mega 2560 or Mega ADK'
p393
sS'upload'
p394
(dp395
S'speed'
p396
S'115200'
p397
sS'maximum_size'
p398
S'258048'
p399
sS'protocol'
p400
S'wiring'
p401
ssaa(lp402
S'mega'
p403
a(dp404
S'build'
p405
(dp406
S'core'
p407
S'arduino'
p408
sS'mcu'
p409
S'atmega1280'
p410
sS'f_cpu'
p411
S'16000000L'
p412
sS'variant'
p413
S'mega'
p414
ssS'bootloader'
p415
(dp416
S'extended_fuses'
p417
S'0xF5'
p418
sS'high_fuses'
p419
S'0xDA'
p420
sS'low_fuses'
p421
S'0xFF'
p422
sS'lock_bits'
p423
S'0x0F'
p424
sS'file'
p425
S'ATmegaBOOT_168_atmega1280.hex'
p426
sS'path'
p427
S'atmega'
p428
sS'unlock_bits'
p429
S'0x3F'
p430
ssS'name'
p431
S'Arduino Mega (ATmega1280)'
p432
sS'upload'
p433
(dp434
S'speed'
p435
S'57600'
p436
sS'maximum_size'
p437
S'126976'
p438
sS'protocol'
p439
S'arduino'
p440
ssaa(lp441
S'leonardo'
p442
a(dp443
S'build'
p444
(dp445
S'core'
p446
S'arduino'
p447
sS'f_cpu'
p448
S'16000000L'
p449
sS'vid'
p450
S'0x2341'
p451
sS'pid'
p452
S'0x8036'
p453
sS'variant'
p454
S'leonardo'
p455
sS'mcu'
p456
S'atmega32u4'
p457
ssS'bootloader'
p458
(dp459
S'extended_fuses'
p460
S'0xcb'
p461
sS'high_fuses'
p462
S'0xd8'
p463
sS'low_fuses'
p464
S'0xff'
p465
sS'lock_bits'
p466
S'0x2F'
p467
sS'file'
p468
S'Caterina-Leonardo.hex'
p469
sS'path'
p470
S'caterina'
p471
sS'unlock_bits'
p472
S'0x3F'
p473
ssS'name'
p474
S'Arduino Leonardo'
p475
sS'upload'
p476
(dp477
S'speed'
p478
S'57600'
p479
sS'maximum_size'
p480
S'28672'
p481
sS'protocol'
p482
S'avr109'
p483
sS'disable_flushing'
p484
S'true'
p485
ssaa(lp486
S'esplora'
p487
a(dp488
S'build'
p489
(dp490
S'core'
p491
S'arduino'
p492
sS'f_cpu'
p493
S'16000000L'
p494
sS'vid'
p495
S'0x2341'
p496
sS'pid'
p497
S'0x803C'
p498
sS'variant'
p499
S'leonardo'
p500
sS'mcu'
p501
S'atmega32u4'
p502
ssS'bootloader'
p503
(dp504
S'extended_fuses'
p505
S'0xcb'
p506
sS'high_fuses'
p507
S'0xd8'
p508
sS'low_fuses'
p509
S'0xff'
p510
sS'lock_bits'
p511
S'0x2F'
p512
sS'file'
p513
S'Caterina-Esplora.hex'
p514
sS'path'
p515
S'caterina'
p516
sS'unlock_bits'
p517
S'0x3F'
p518
ssS'name'
p519
S'Arduino Esplora'
p520
sS'upload'
p521
(dp522
S'speed'
p523
S'57600'
p524
sS'maximum_size'
p525
S'28672'
p526
sS'protocol'
p527
S'avr109'
p528
sS'disable_flushing'
p529
S'true'
p530
ssaa(lp531
S'micro'
p532
a(dp533
S'build'
p534
(dp535
S'core'
p536
S'arduino'
p537
sS'f_cpu'
p538
S'16000000L'
p539
sS'vid'
p540
S'0x2341'
p541
sS'pid'
p542
S'0x8037'
p543
sS'variant'
p544
S'micro'
p545
sS'mcu'
p546
S'atmega32u4'
p547
ssS'bootloader'
p548
(dp549
S'extended_fuses'
p550
S'0xcb'
p551
sS'high_fuses'
p552
S'0xd8'
p553
sS'low_fuses'
p554
S'0xff'
p555
sS'lock_bits'
p556
S'0x2F'
p557
sS'file'
p558
S'Caterina-Micro.hex'
p559
sS'path'
p560
S'caterina'
p561
sS'unlock_bits'
p562
S'0x3F'
p563
ssS'name'
p564
S'Arduino Micro'
p565
sS'upload'
p566
(dp567
S'speed'
p568
S'57600'
p569
sS'maximum_size'
p570
S'28672'
p571
sS'protocol'
p572
S'avr109'
p573
sS'disable_flushing'
p574
S'true'
p575
ssaa(lp576
S'mini328'
p577
a(dp578
S'build'
p579
(dp580
S'core'
p581
S'arduino'
p582
sS'mcu'
p583
S'atmega328p'
p584
sS'f_cpu'
p585
S'16000000L'
p586
sS'variant'
p587
S'eightanaloginputs'
p588
ssS'bootloader'
p589
(dp590
S'extended_fuses'
p591
S'0x05'
p592
sS'high_fuses'
p593
S'0xd8'
p594
sS'low_fuses'
p595
S'0xff'
p596
sS'lock_bits'
p597
S'0x0F'
p598
sS'file'
p599
S'optiboot_atmega328-Mini.hex'
p600
sS'path'
p601
S'optiboot'
p602
sS'unlock_bits'
p603
S'0x3F'
p604
ssS'name'
p605
S'Arduino Mini w/ ATmega328'
p606
sS'upload'
p607
(dp608
S'speed'
p609
S'115200'
p610
sS'maximum_size'
p611
S'28672'
p612
sS'protocol'
p613
S'arduino'
p614
ssaa(lp615
S'mini'
p616
a(dp617
S'build'
p618
(dp619
S'core'
p620
S'arduino'
p621
sS'mcu'
p622
S'atmega168'
p623
sS'f_cpu'
p624
S'16000000L'
p625
sS'variant'
p626
S'eightanaloginputs'
p627
ssS'bootloader'
p628
(dp629
S'extended_fuses'
p630
S'0x00'
p631
sS'high_fuses'
p632
S'0xdd'
p633
sS'low_fuses'
p634
S'0xff'
p635
sS'lock_bits'
p636
S'0x0F'
p637
sS'file'
p638
S'ATmegaBOOT_168_ng.hex'
p639
sS'path'
p640
S'atmega'
p641
sS'unlock_bits'
p642
S'0x3F'
p643
ssS'name'
p644
S'Arduino Mini w/ ATmega168'
p645
sS'upload'
p646
(dp647
S'speed'
p648
S'19200'
p649
sS'maximum_size'
p650
S'14336'
p651
sS'protocol'
p652
S'arduino'
p653
ssaa(lp654
S'ethernet'
p655
a(dp656
S'build'
p657
(dp658
S'f_cpu'
p659
S'16000000L'
p660
sS'mcu'
p661
S'atmega328p'
p662
sS'variant'
p663
S'standard'
p664
sS'core'
p665
S'arduino'
p666
ssS'bootloader'
p667
(dp668
S'extended_fuses'
p669
S'0x05'
p670
sS'high_fuses'
p671
S'0xde'
p672
sS'low_fuses'
p673
S'0xff'
p674
sS'lock_bits'
p675
S'0x0F'
p676
sS'file'
p677
S'optiboot_atmega328.hex'
p678
sS'path'
p679
S'optiboot'
p680
sS'unlock_bits'
p681
S'0x3F'
p682
ssS'name'
p683
S'Arduino Ethernet'
p684
sS'upload'
p685
(dp686
S'speed'
p687
S'115200'
p688
sS'maximum_size'
p689
S'32256'
p690
sS'protocol'
p691
S'arduino'
p692
ssaa(lp693
S'fio'
p694
a(dp695
S'build'
p696
(dp697
S'core'
p698
S'arduino'
p699
sS'mcu'
p700
S'atmega328p'
p701
sS'f_cpu'
p702
S'8000000L'
p703
sS'variant'
p704
S'eightanaloginputs'
p705
ssS'bootloader'
p706
(dp707
S'extended_fuses'
p708
S'0x05'
p709
sS'high_fuses'
p710
S'0xDA'
p711
sS'low_fuses'
p712
S'0xFF'
p713
sS'lock_bits'
p714
S'0x0F'
p715
sS'file'
p716
S'ATmegaBOOT_168_atmega328_pro_8MHz.hex'
p717
sS'path'
p718
S'arduino:atmega'
p719
sS'unlock_bits'
p720
S'0x3F'
p721
ssS'name'
p722
S'Arduino Fio'
p723
sS'upload'
p724
(dp725
S'speed'
p726
S'57600'
p727
sS'maximum_size'
p728
S'30720'
p729
sS'protocol'
p730
S'arduino'
p731
ssaa(lp732
S'bt328'
p733
a(dp734
S'build'
p735
(dp736
S'core'
p737
S'arduino'
p738
sS'mcu'
p739
S'atmega328p'
p740
sS'f_cpu'
p741
S'16000000L'
p742
sS'variant'
p743
S'eightanaloginputs'
p744
ssS'bootloader'
p745
(dp746
S'extended_fuses'
p747
S'0x05'
p748
sS'high_fuses'
p749
S'0xd8'
p750
sS'low_fuses'
p751
S'0xff'
p752
sS'lock_bits'
p753
S'0x0F'
p754
sS'file'
p755
S'ATmegaBOOT_168_atmega328_bt.hex'
p756
sS'path'
p757
S'bt'
p758
sS'unlock_bits'
p759
S'0x3F'
p760
ssS'name'
p761
S'Arduino BT w/ ATmega328'
p762
sS'upload'
p763
(dp764
S'speed'
p765
S'19200'
p766
sS'maximum_size'
p767
S'28672'
p768
sS'protocol'
p769
S'arduino'
p770
sS'disable_flushing'
p771
S'true'
p772
ssaa(lp773
S'bt'
p774
a(dp775
S'build'
p776
(dp777
S'core'
p778
S'arduino'
p779
sS'mcu'
p780
S'atmega168'
p781
sS'f_cpu'
p782
S'16000000L'
p783
sS'variant'
p784
S'eightanaloginputs'
p785
ssS'bootloader'
p786
(dp787
S'extended_fuses'
p788
S'0x00'
p789
sS'high_fuses'
p790
S'0xdd'
p791
sS'low_fuses'
p792
S'0xff'
p793
sS'lock_bits'
p794
S'0x0F'
p795
sS'file'
p796
S'ATmegaBOOT_168.hex'
p797
sS'path'
p798
S'bt'
p799
sS'unlock_bits'
p800
S'0x3F'
p801
ssS'name'
p802
S'Arduino BT w/ ATmega168'
p803
sS'upload'
p804
(dp805
S'speed'
p806
S'19200'
p807
sS'maximum_size'
p808
S'14336'
p809
sS'protocol'
p810
S'arduino'
p811
sS'disable_flushing'
p812
S'true'
p813
ssaa(lp814
S'LilyPadUSB'
p815
a(dp816
S'build'
p817
(dp818
S'core'
p819
S'arduino'
p820
sS'f_cpu'
p821
S'8000000L'
p822
sS'vid'
p823
S'0x1B4F'
p824
sS'pid'
p825
S'0x9208'
p826
sS'variant'
p827
S'leonardo'
p828
sS'mcu'
p829
S'atmega32u4'
p830
ssS'bootloader'
p831
(dp832
S'extended_fuses'
p833
S'0xce'
p834
sS'high_fuses'
p835
S'0xd8'
p836
sS'low_fuses'
p837
S'0xff'
p838
sS'lock_bits'
p839
S'0x2F'
p840
sS'file'
p841
S'Caterina-LilyPadUSB.hex'
p842
sS'path'
p843
S'caterina-LilyPadUSB'
p844
sS'unlock_bits'
p845
S'0x3F'
p846
ssS'name'
p847
S'LilyPad Arduino USB'
p848
sS'upload'
p849
(dp850
S'speed'
p851
S'57600'
p852
sS'maximum_size'
p853
S'28672'
p854
sS'protocol'
p855
S'avr109'
p856
sS'disable_flushing'
p857
S'true'
p858
ssaa(lp859
S'lilypad328'
p860
a(dp861
S'build'
p862
(dp863
S'core'
p864
S'arduino'
p865
sS'mcu'
p866
S'atmega328p'
p867
sS'f_cpu'
p868
S'8000000L'
p869
sS'variant'
p870
S'standard'
p871
ssS'bootloader'
p872
(dp873
S'extended_fuses'
p874
S'0x05'
p875
sS'high_fuses'
p876
S'0xDA'
p877
sS'low_fuses'
p878
S'0xFF'
p879
sS'lock_bits'
p880
S'0x0F'
p881
sS'file'
p882
S'ATmegaBOOT_168_atmega328_pro_8MHz.hex'
p883
sS'path'
p884
S'atmega'
p885
sS'unlock_bits'
p886
S'0x3F'
p887
ssS'name'
p888
S'LilyPad Arduino w/ ATmega328'
p889
sS'upload'
p890
(dp891
S'speed'
p892
S'57600'
p893
sS'maximum_size'
p894
S'30720'
p895
sS'protocol'
p896
S'arduino'
p897
ssaa(lp898
S'lilypad'
p899
a(dp900
S'build'
p901
(dp902
S'core'
p903
S'arduino'
p904
sS'mcu'
p905
S'atmega168'
p906
sS'f_cpu'
p907
S'8000000L'
p908
sS'variant'
p909
S'standard'
p910
ssS'bootloader'
p911
(dp912
S'extended_fuses'
p913
S'0x00'
p914
sS'high_fuses'
p915
S'0xdd'
p916
sS'low_fuses'
p917
S'0xe2'
p918
sS'lock_bits'
p919
S'0x0F'
p920
sS'file'
p921
S'LilyPadBOOT_168.hex'
p922
sS'path'
p923
S'lilypad'
p924
sS'unlock_bits'
p925
S'0x3F'
p926
ssS'name'
p927
S'LilyPad Arduino w/ ATmega168'
p928
sS'upload'
p929
(dp930
S'speed'
p931
S'19200'
p932
sS'maximum_size'
p933
S'14336'
p934
sS'protocol'
p935
S'arduino'
p936
ssaa(lp937
S'pro5v328'
p938
a(dp939
S'build'
p940
(dp941
S'core'
p942
S'arduino'
p943
sS'mcu'
p944
S'atmega328p'
p945
sS'f_cpu'
p946
S'16000000L'
p947
sS'variant'
p948
S'standard'
p949
ssS'bootloader'
p950
(dp951
S'extended_fuses'
p952
S'0x05'
p953
sS'high_fuses'
p954
S'0xDA'
p955
sS'low_fuses'
p956
S'0xFF'
p957
sS'lock_bits'
p958
S'0x0F'
p959
sS'file'
p960
S'ATmegaBOOT_168_atmega328.hex'
p961
sS'path'
p962
S'atmega'
p963
sS'unlock_bits'
p964
S'0x3F'
p965
ssS'name'
p966
S'Arduino Pro or Pro Mini (5V, 16 MHz) w/ ATmega328'
p967
sS'upload'
p968
(dp969
S'speed'
p970
S'57600'
p971
sS'maximum_size'
p972
S'30720'
p973
sS'protocol'
p974
S'arduino'
p975
ssaa(lp976
S'pro5v'
p977
a(dp978
S'build'
p979
(dp980
S'core'
p981
S'arduino'
p982
sS'mcu'
p983
S'atmega168'
p984
sS'f_cpu'
p985
S'16000000L'
p986
sS'variant'
p987
S'standard'
p988
ssS'bootloader'
p989
(dp990
S'extended_fuses'
p991
S'0x00'
p992
sS'high_fuses'
p993
S'0xdd'
p994
sS'low_fuses'
p995
S'0xff'
p996
sS'lock_bits'
p997
S'0x0F'
p998
sS'file'
p999
S'ATmegaBOOT_168_diecimila.hex'
p1000
sS'path'
p1001
S'atmega'
p1002
sS'unlock_bits'
p1003
S'0x3F'
p1004
ssS'name'
p1005
S'Arduino Pro or Pro Mini (5V, 16 MHz) w/ ATmega168'
p1006
sS'upload'
p1007
(dp1008
S'speed'
p1009
S'19200'
p1010
sS'maximum_size'
p1011
S'14336'
p1012
sS'protocol'
p1013
S'arduino'
p1014
ssaa(lp1015
S'pro328'
p1016
a(dp1017
S'build'
p1018
(dp1019
S'core'
p1020
S'arduino'
p1021
sS'mcu'
p1022
S'atmega328p'
p1023
sS'f_cpu'
p1024
S'8000000L'
p1025
sS'variant'
p1026
S'standard'
p1027
ssS'bootloader'
p1028
(dp1029
S'extended_fuses'
p1030
S'0x05'
p1031
sS'high_fuses'
p1032
S'0xDA'
p1033
sS'low_fuses'
p1034
S'0xFF'
p1035
sS'lock_bits'
p1036
S'0x0F'
p1037
sS'file'
p1038
S'ATmegaBOOT_168_atmega328_pro_8MHz.hex'
p1039
sS'path'
p1040
S'atmega'
p1041
sS'unlock_bits'
p1042
S'0x3F'
p1043
ssS'name'
p1044
S'Arduino Pro or Pro Mini (3.3V, 8 MHz) w/ ATmega328'
p1045
sS'upload'
p1046
(dp1047
S'speed'
p1048
S'57600'
p1049
sS'maximum_size'
p1050
S'30720'
p1051
sS'protocol'
p1052
S'arduino'
p1053
ssaa(lp1054
S'pro'
p1055
a(dp1056
S'build'
p1057
(dp1058
S'core'
p1059
S'arduino'
p1060
sS'mcu'
p1061
S'atmega168'
p1062
sS'f_cpu'
p1063
S'8000000L'
p1064
sS'variant'
p1065
S'standard'
p1066
ssS'bootloader'
p1067
(dp1068
S'extended_fuses'
p1069
S'0x00'
p1070
sS'high_fuses'
p1071
S'0xdd'
p1072
sS'low_fuses'
p1073
S'0xc6'
p1074
sS'lock_bits'
p1075
S'0x0F'
p1076
sS'file'
p1077
S'ATmegaBOOT_168_pro_8MHz.hex'
p1078
sS'path'
p1079
S'atmega'
p1080
sS'unlock_bits'
p1081
S'0x3F'
p1082
ssS'name'
p1083
S'Arduino Pro or Pro Mini (3.3V, 8 MHz) w/ ATmega168'
p1084
sS'upload'
p1085
(dp1086
S'speed'
p1087
S'19200'
p1088
sS'maximum_size'
p1089
S'14336'
p1090
sS'protocol'
p1091
S'arduino'
p1092
ssaa(lp1093
S'atmega168'
p1094
a(dp1095
S'build'
p1096
(dp1097
S'core'
p1098
S'arduino'
p1099
sS'mcu'
p1100
S'atmega168'
p1101
sS'f_cpu'
p1102
S'16000000L'
p1103
sS'variant'
p1104
S'standard'
p1105
ssS'bootloader'
p1106
(dp1107
S'extended_fuses'
p1108
S'0x00'
p1109
sS'high_fuses'
p1110
S'0xdd'
p1111
sS'low_fuses'
p1112
S'0xff'
p1113
sS'lock_bits'
p1114
S'0x0F'
p1115
sS'file'
p1116
S'ATmegaBOOT_168_ng.hex'
p1117
sS'path'
p1118
S'atmega'
p1119
sS'unlock_bits'
p1120
S'0x3F'
p1121
ssS'name'
p1122
S'Arduino NG or older w/ ATmega168'
p1123
sS'upload'
p1124
(dp1125
S'speed'
p1126
S'19200'
p1127
sS'maximum_size'
p1128
S'14336'
p1129
sS'protocol'
p1130
S'arduino'
p1131
ssaa(lp1132
S'atmega8'
p1133
a(dp1134
S'build'
p1135
(dp1136
S'core'
p1137
S'arduino'
p1138
sS'mcu'
p1139
S'atmega8'
p1140
sS'f_cpu'
p1141
S'16000000L'
p1142
sS'variant'
p1143
S'standard'
p1144
ssS'bootloader'
p1145
(dp1146
S'high_fuses'
p1147
S'0xca'
p1148
sS'low_fuses'
p1149
S'0xdf'
p1150
sS'lock_bits'
p1151
S'0x0F'
p1152
sS'file'
p1153
S'ATmegaBOOT-prod-firmware-2009-11-07.hex'
p1154
sS'path'
p1155
S'atmega8'
p1156
sS'unlock_bits'
p1157
S'0x3F'
p1158
ssS'name'
p1159
S'Arduino NG or older w/ ATmega8'
p1160
sS'upload'
p1161
(dp1162
S'speed'
p1163
S'19200'
p1164
sS'maximum_size'
p1165
S'7168'
p1166
sS'protocol'
p1167
S'arduino'
p1168
ssaa(lp1169
S'robotControl'
p1170
a(dp1171
S'build'
p1172
(dp1173
S'core'
p1174
S'robot'
p1175
sS'f_cpu'
p1176
S'16000000L'
p1177
sS'vid'
p1178
S'0x2341'
p1179
sS'pid'
p1180
S'0x8038'
p1181
sS'variant'
p1182
S'robot_control'
p1183
sS'mcu'
p1184
S'atmega32u4'
p1185
ssS'bootloader'
p1186
(dp1187
S'extended_fuses'
p1188
S'0xcb'
p1189
sS'high_fuses'
p1190
S'0xd8'
p1191
sS'low_fuses'
p1192
S'0xff'
p1193
sS'lock_bits'
p1194
S'0x2F'
p1195
sS'file'
p1196
S'Caterina-Robot-Control.hex'
p1197
sS'path'
p1198
S'caterina-Arduino_Robot'
p1199
sS'unlock_bits'
p1200
S'0x3F'
p1201
ssS'name'
p1202
S'Arduino Robot Control'
p1203
sS'upload'
p1204
(dp1205
S'speed'
p1206
S'57600'
p1207
sS'maximum_size'
p1208
S'28672'
p1209
sS'protocol'
p1210
S'avr109'
p1211
sS'disable_flushing'
p1212
S'true'
p1213
ssaa(lp1214
S'robotMotor'
p1215
a(dp1216
S'build'
p1217
(dp1218
S'core'
p1219
S'robot'
p1220
sS'f_cpu'
p1221
S'16000000L'
p1222
sS'vid'
p1223
S'0x2341'
p1224
sS'pid'
p1225
S'0x8039'
p1226
sS'variant'
p1227
S'robot_motor'
p1228
sS'mcu'
p1229
S'atmega32u4'
p1230
ssS'bootloader'
p1231
(dp1232
S'extended_fuses'
p1233
S'0xcb'
p1234
sS'high_fuses'
p1235
S'0xd8'
p1236
sS'low_fuses'
p1237
S'0xff'
p1238
sS'lock_bits'
p1239
S'0x2F'
p1240
sS'file'
p1241
S'Caterina-Robot-Motor.hex'
p1242
sS'path'
p1243
S'caterina-Arduino_Robot'
p1244
sS'unlock_bits'
p1245
S'0x3F'
p1246
ssS'name'
p1247
S'Arduino Robot Motor'
p1248
sS'upload'
p1249
(dp1250
S'speed'
p1251
S'57600'
p1252
sS'maximum_size'
p1253
S'28672'
p1254
sS'protocol'
p1255
S'avr109'
p1256
sS'disable_flushing'
p1257
S'true'
p1258
ssaatp1259
Rp1260
(dp1261
S'default'
p1262
S'uno'
p1263
sbtp1264
a(S'cxx'
p1265
S'/home/gelo/Electronica/arduino-1.0.5/hardware/tools/avr/bin/avr-g++'
p1266
tp1267
a.