(lp0
(S'cppflags'
p1
ccopy_reg
_reconstructor
p2
(cino.utils
SpaceList
p3
c__builtin__
list
p4
(lp5
S'-mmcu=atmega328p'
p6
aS'-DF_CPU=16000000L'
p7
aS'-DARDUINO=105'
p8
aS'-I/home/gelo/Electronica/arduino-1.0.5/hardware/arduino/cores/arduino'
p9
aS'-ffunction-sections'
p10
aS'-fdata-sections'
p11
aS'-g'
p12
aS'-Os'
p13
aS'-w'
p14
aS'-I/home/gelo/Electronica/arduino-1.0.5/hardware/arduino/variants/standard'
p15
aS'-I/home/gelo/Electronica/arduino-1.0.5/libraries/DS1307RTC'
p16
aS'-I/home/gelo/Electronica/arduino-1.0.5/libraries/Time'
p17
aS'-I/home/gelo/Electronica/arduino-1.0.5/libraries/Time/Examples'
p18
aS'-I/home/gelo/Electronica/arduino-1.0.5/libraries/Time/Examples/TimeSerialDateStrings'
p19
aS'-I/home/gelo/Electronica/arduino-1.0.5/libraries/Time/Examples/TimeSerial'
p20
aS'-I/home/gelo/Electronica/arduino-1.0.5/libraries/Time/Examples/TimeRTCSet'
p21
aS'-I/home/gelo/Electronica/arduino-1.0.5/libraries/Time/Examples/TimeRTCLog'
p22
aS'-I/home/gelo/Electronica/arduino-1.0.5/libraries/Time/Examples/TimeRTC'
p23
aS'-I/home/gelo/Electronica/arduino-1.0.5/libraries/Time/Examples/TimeNTP'
p24
aS'-I/home/gelo/Electronica/arduino-1.0.5/libraries/Time/Examples/TimeGPS'
p25
aS'-I/home/gelo/Electronica/arduino-1.0.5/libraries/Time/Examples/Processing'
p26
aS'-I/home/gelo/Electronica/arduino-1.0.5/libraries/Time/Examples/Processing/SyncArduinoClock'
p27
aS'-I/home/gelo/Electronica/arduino-1.0.5/libraries/Time/Examples/Processing/SyncArduinoClock'
p28
aS'-I/home/gelo/Electronica/arduino-1.0.5/libraries/Wire'
p29
aS'-I/home/gelo/Electronica/arduino-1.0.5/libraries/Wire/utility'
p30
aS'-I/home/gelo/Electronica/arduino-1.0.5/hardware/arduino/cores/arduino'
p31
aS'-I/home/gelo/Electronica/arduino-1.0.5/hardware/arduino/cores/arduino/avr-libc'
p32
atp33
Rp34
tp35
a(S'arduino_dist_dir'
p36
S'/home/gelo/Electronica/arduino-1.0.5'
p37
tp38
a(S'version.txt'
p39
S'/home/gelo/Electronica/arduino-1.0.5/lib/version.txt'
p40
tp41
a(S'used_libs'
p42
(lp43
S'/home/gelo/Electronica/arduino-1.0.5/libraries/DS1307RTC'
p44
aS'/home/gelo/Electronica/arduino-1.0.5/libraries/Time'
p45
aS'/home/gelo/Electronica/arduino-1.0.5/libraries/Wire'
p46
aS'/home/gelo/Electronica/arduino-1.0.5/hardware/arduino/cores/arduino'
p47
atp48
a(S'cc'
p49
S'/home/gelo/Electronica/arduino-1.0.5/hardware/tools/avr/bin/avr-gcc'
p50
tp51
a(S'make'
p52
S'/usr/bin/make'
p53
tp54
a(S'cflags'
p55
g2
(g3
g4
(lp56
tp57
Rp58
tp59
a(S'build_dir'
p60
S'.build/atmega328p-bb97d15f'
p61
tp62
a(S'arduino_core_dir'
p63
g47
tp64
a(S'boards.txt'
p65
S'/home/gelo/Electronica/arduino-1.0.5/hardware/arduino/boards.txt'
p66
tp67
a(S'cxxflags'
p68
g2
(g3
g4
(lp69
S'-fno-exceptions'
p70
atp71
Rp72
tp73
a(S'arduino_variants_dir'
p74
S'/home/gelo/Electronica/arduino-1.0.5/hardware/arduino/variants'
p75
tp76
a(S'ar'
p77
S'/home/gelo/Electronica/arduino-1.0.5/hardware/tools/avr/bin/avr-ar'
p78
tp79
a(S'cxx'
p80
S'/home/gelo/Electronica/arduino-1.0.5/hardware/tools/avr/bin/avr-g++'
p81
tp82
a(S'names'
p83
(dp84
S'cpp'
p85
S'%s.cpp'
p86
sS'obj'
p87
S'%s.o'
p88
sS'deps'
p89
S'%s.d'
p90
sS'lib'
p91
S'lib%s.a'
p92
stp93
a(S'deps'
p94
g2
(g3
g4
(lp95
S'.build/atmega328p-bb97d15f/src/dependencies.d'
p96
aS'.build/atmega328p-bb97d15f/Time/dependencies.d'
p97
aS'.build/atmega328p-bb97d15f/arduino/dependencies.d'
p98
aS'.build/atmega328p-bb97d15f/Wire/dependencies.d'
p99
aS'.build/atmega328p-bb97d15f/DS1307RTC/dependencies.d'
p100
atp101
Rp102
tp103
a(S'arduino_libraries_dir'
p104
S'/home/gelo/Electronica/arduino-1.0.5/libraries'
p105
tp106
a(S'arduino_lib_version'
p107
g2
(cino.environment
Version
p108
c__builtin__
tuple
p109
(I1
I0
I5
tp110
tp111
Rp112
tp113
a(S'objcopy'
p114
S'/home/gelo/Electronica/arduino-1.0.5/hardware/tools/avr/bin/avr-objcopy'
p115
tp116
a(S'board_models'
p117
cino.environment
BoardModels
p118
((lp119
(lp120
S'uno'
p121
a(dp122
S'bootloader'
p123
(dp124
S'extended_fuses'
p125
S'0x05'
p126
sS'high_fuses'
p127
S'0xde'
p128
sS'low_fuses'
p129
S'0xff'
p130
sS'lock_bits'
p131
S'0x0F'
p132
sS'file'
p133
S'optiboot_atmega328.hex'
p134
sS'path'
p135
S'optiboot'
p136
sS'unlock_bits'
p137
S'0x3F'
p138
ssS'upload'
p139
(dp140
S'protocol'
p141
S'arduino'
p142
sS'maximum_size'
p143
S'32256'
p144
sS'speed'
p145
S'115200'
p146
ssS'build'
p147
(dp148
S'core'
p149
S'arduino'
p150
sS'mcu'
p151
S'atmega328p'
p152
sS'f_cpu'
p153
S'16000000L'
p154
sS'variant'
p155
S'standard'
p156
ssS'name'
p157
S'Arduino Uno'
p158
saa(lp159
S'atmega328'
p160
a(dp161
S'bootloader'
p162
(dp163
S'extended_fuses'
p164
S'0x05'
p165
sS'high_fuses'
p166
S'0xDA'
p167
sS'low_fuses'
p168
S'0xFF'
p169
sS'lock_bits'
p170
S'0x0F'
p171
sS'file'
p172
S'ATmegaBOOT_168_atmega328.hex'
p173
sS'path'
p174
S'atmega'
p175
sS'unlock_bits'
p176
S'0x3F'
p177
ssS'upload'
p178
(dp179
S'protocol'
p180
S'arduino'
p181
sS'maximum_size'
p182
S'30720'
p183
sS'speed'
p184
S'57600'
p185
ssS'build'
p186
(dp187
S'core'
p188
S'arduino'
p189
sS'mcu'
p190
S'atmega328'
p191
sS'f_cpu'
p192
S'16000000L'
p193
sS'variant'
p194
S'standard'
p195
ssS'name'
p196
S'Arduino Duemilanove w/ ATmega328'
p197
saa(lp198
S'atmega328p'
p199
a(dp200
S'bootloader'
p201
(dp202
S'extended_fuses'
p203
S'0x05'
p204
sS'high_fuses'
p205
S'0xDA'
p206
sS'low_fuses'
p207
S'0xFF'
p208
sS'lock_bits'
p209
S'0x0F'
p210
sS'file'
p211
S'ATmegaBOOT_168_atmega328.hex'
p212
sS'path'
p213
S'atmega'
p214
sS'unlock_bits'
p215
S'0x3F'
p216
ssS'upload'
p217
(dp218
S'protocol'
p219
S'arduino'
p220
sS'maximum_size'
p221
S'30720'
p222
sS'speed'
p223
S'57600'
p224
ssS'build'
p225
(dp226
S'core'
p227
S'arduino'
p228
sS'mcu'
p229
S'atmega328p'
p230
sS'f_cpu'
p231
S'16000000L'
p232
sS'variant'
p233
S'standard'
p234
ssS'name'
p235
S'Arduino Duemilanove w/ ATmega328p'
p236
saa(lp237
S'diecimila'
p238
a(dp239
S'bootloader'
p240
(dp241
S'extended_fuses'
p242
S'0x00'
p243
sS'high_fuses'
p244
S'0xdd'
p245
sS'low_fuses'
p246
S'0xff'
p247
sS'lock_bits'
p248
S'0x0F'
p249
sS'file'
p250
S'ATmegaBOOT_168_diecimila.hex'
p251
sS'path'
p252
S'atmega'
p253
sS'unlock_bits'
p254
S'0x3F'
p255
ssS'upload'
p256
(dp257
S'protocol'
p258
S'arduino'
p259
sS'maximum_size'
p260
S'14336'
p261
sS'speed'
p262
S'19200'
p263
ssS'build'
p264
(dp265
S'core'
p266
S'arduino'
p267
sS'mcu'
p268
S'atmega168'
p269
sS'f_cpu'
p270
S'16000000L'
p271
sS'variant'
p272
S'standard'
p273
ssS'name'
p274
S'Arduino Diecimila or Duemilanove w/ ATmega168'
p275
saa(lp276
S'nano328'
p277
a(dp278
S'bootloader'
p279
(dp280
S'extended_fuses'
p281
S'0x05'
p282
sS'high_fuses'
p283
S'0xDA'
p284
sS'low_fuses'
p285
S'0xFF'
p286
sS'lock_bits'
p287
S'0x0F'
p288
sS'file'
p289
S'ATmegaBOOT_168_atmega328.hex'
p290
sS'path'
p291
S'atmega'
p292
sS'unlock_bits'
p293
S'0x3F'
p294
ssS'upload'
p295
(dp296
S'protocol'
p297
S'arduino'
p298
sS'maximum_size'
p299
S'30720'
p300
sS'speed'
p301
S'57600'
p302
ssS'build'
p303
(dp304
S'core'
p305
S'arduino'
p306
sS'mcu'
p307
S'atmega328p'
p308
sS'f_cpu'
p309
S'16000000L'
p310
sS'variant'
p311
S'eightanaloginputs'
p312
ssS'name'
p313
S'Arduino Nano w/ ATmega328'
p314
saa(lp315
S'nano'
p316
a(dp317
S'bootloader'
p318
(dp319
S'extended_fuses'
p320
S'0x00'
p321
sS'high_fuses'
p322
S'0xdd'
p323
sS'low_fuses'
p324
S'0xff'
p325
sS'lock_bits'
p326
S'0x0F'
p327
sS'file'
p328
S'ATmegaBOOT_168_diecimila.hex'
p329
sS'path'
p330
S'atmega'
p331
sS'unlock_bits'
p332
S'0x3F'
p333
ssS'upload'
p334
(dp335
S'protocol'
p336
S'arduino'
p337
sS'maximum_size'
p338
S'14336'
p339
sS'speed'
p340
S'19200'
p341
ssS'build'
p342
(dp343
S'core'
p344
S'arduino'
p345
sS'mcu'
p346
S'atmega168'
p347
sS'f_cpu'
p348
S'16000000L'
p349
sS'variant'
p350
S'eightanaloginputs'
p351
ssS'name'
p352
S'Arduino Nano w/ ATmega168'
p353
saa(lp354
S'mega2560'
p355
a(dp356
S'bootloader'
p357
(dp358
S'extended_fuses'
p359
S'0xFD'
p360
sS'high_fuses'
p361
S'0xD8'
p362
sS'low_fuses'
p363
S'0xFF'
p364
sS'lock_bits'
p365
S'0x0F'
p366
sS'file'
p367
S'stk500boot_v2_mega2560.hex'
p368
sS'path'
p369
S'stk500v2'
p370
sS'unlock_bits'
p371
S'0x3F'
p372
ssS'upload'
p373
(dp374
S'protocol'
p375
S'wiring'
p376
sS'maximum_size'
p377
S'258048'
p378
sS'speed'
p379
S'115200'
p380
ssS'build'
p381
(dp382
S'core'
p383
S'arduino'
p384
sS'mcu'
p385
S'atmega2560'
p386
sS'f_cpu'
p387
S'16000000L'
p388
sS'variant'
p389
S'mega'
p390
ssS'name'
p391
S'Arduino Mega 2560 or Mega ADK'
p392
saa(lp393
S'mega'
p394
a(dp395
S'bootloader'
p396
(dp397
S'extended_fuses'
p398
S'0xF5'
p399
sS'high_fuses'
p400
S'0xDA'
p401
sS'low_fuses'
p402
S'0xFF'
p403
sS'lock_bits'
p404
S'0x0F'
p405
sS'file'
p406
S'ATmegaBOOT_168_atmega1280.hex'
p407
sS'path'
p408
S'atmega'
p409
sS'unlock_bits'
p410
S'0x3F'
p411
ssS'upload'
p412
(dp413
S'protocol'
p414
S'arduino'
p415
sS'maximum_size'
p416
S'126976'
p417
sS'speed'
p418
S'57600'
p419
ssS'build'
p420
(dp421
S'core'
p422
S'arduino'
p423
sS'mcu'
p424
S'atmega1280'
p425
sS'f_cpu'
p426
S'16000000L'
p427
sS'variant'
p428
S'mega'
p429
ssS'name'
p430
S'Arduino Mega (ATmega1280)'
p431
saa(lp432
S'leonardo'
p433
a(dp434
S'bootloader'
p435
(dp436
S'extended_fuses'
p437
S'0xcb'
p438
sS'high_fuses'
p439
S'0xd8'
p440
sS'low_fuses'
p441
S'0xff'
p442
sS'lock_bits'
p443
S'0x2F'
p444
sS'file'
p445
S'Caterina-Leonardo.hex'
p446
sS'path'
p447
S'caterina'
p448
sS'unlock_bits'
p449
S'0x3F'
p450
ssS'upload'
p451
(dp452
S'protocol'
p453
S'avr109'
p454
sS'maximum_size'
p455
S'28672'
p456
sS'speed'
p457
S'57600'
p458
sS'disable_flushing'
p459
S'true'
p460
ssS'build'
p461
(dp462
S'core'
p463
S'arduino'
p464
sS'f_cpu'
p465
S'16000000L'
p466
sS'vid'
p467
S'0x2341'
p468
sS'pid'
p469
S'0x8036'
p470
sS'variant'
p471
S'leonardo'
p472
sS'mcu'
p473
S'atmega32u4'
p474
ssS'name'
p475
S'Arduino Leonardo'
p476
saa(lp477
S'esplora'
p478
a(dp479
S'bootloader'
p480
(dp481
S'extended_fuses'
p482
S'0xcb'
p483
sS'high_fuses'
p484
S'0xd8'
p485
sS'low_fuses'
p486
S'0xff'
p487
sS'lock_bits'
p488
S'0x2F'
p489
sS'file'
p490
S'Caterina-Esplora.hex'
p491
sS'path'
p492
S'caterina'
p493
sS'unlock_bits'
p494
S'0x3F'
p495
ssS'upload'
p496
(dp497
S'protocol'
p498
S'avr109'
p499
sS'maximum_size'
p500
S'28672'
p501
sS'speed'
p502
S'57600'
p503
sS'disable_flushing'
p504
S'true'
p505
ssS'build'
p506
(dp507
S'core'
p508
S'arduino'
p509
sS'f_cpu'
p510
S'16000000L'
p511
sS'vid'
p512
S'0x2341'
p513
sS'pid'
p514
S'0x803C'
p515
sS'variant'
p516
S'leonardo'
p517
sS'mcu'
p518
S'atmega32u4'
p519
ssS'name'
p520
S'Arduino Esplora'
p521
saa(lp522
S'micro'
p523
a(dp524
S'bootloader'
p525
(dp526
S'extended_fuses'
p527
S'0xcb'
p528
sS'high_fuses'
p529
S'0xd8'
p530
sS'low_fuses'
p531
S'0xff'
p532
sS'lock_bits'
p533
S'0x2F'
p534
sS'file'
p535
S'Caterina-Micro.hex'
p536
sS'path'
p537
S'caterina'
p538
sS'unlock_bits'
p539
S'0x3F'
p540
ssS'upload'
p541
(dp542
S'protocol'
p543
S'avr109'
p544
sS'maximum_size'
p545
S'28672'
p546
sS'speed'
p547
S'57600'
p548
sS'disable_flushing'
p549
S'true'
p550
ssS'build'
p551
(dp552
S'core'
p553
S'arduino'
p554
sS'f_cpu'
p555
S'16000000L'
p556
sS'vid'
p557
S'0x2341'
p558
sS'pid'
p559
S'0x8037'
p560
sS'variant'
p561
S'micro'
p562
sS'mcu'
p563
S'atmega32u4'
p564
ssS'name'
p565
S'Arduino Micro'
p566
saa(lp567
S'mini328'
p568
a(dp569
S'bootloader'
p570
(dp571
S'extended_fuses'
p572
S'0x05'
p573
sS'high_fuses'
p574
S'0xd8'
p575
sS'low_fuses'
p576
S'0xff'
p577
sS'lock_bits'
p578
S'0x0F'
p579
sS'file'
p580
S'optiboot_atmega328-Mini.hex'
p581
sS'path'
p582
S'optiboot'
p583
sS'unlock_bits'
p584
S'0x3F'
p585
ssS'upload'
p586
(dp587
S'protocol'
p588
S'arduino'
p589
sS'maximum_size'
p590
S'28672'
p591
sS'speed'
p592
S'115200'
p593
ssS'build'
p594
(dp595
S'core'
p596
S'arduino'
p597
sS'mcu'
p598
S'atmega328p'
p599
sS'f_cpu'
p600
S'16000000L'
p601
sS'variant'
p602
S'eightanaloginputs'
p603
ssS'name'
p604
S'Arduino Mini w/ ATmega328'
p605
saa(lp606
S'mini'
p607
a(dp608
S'bootloader'
p609
(dp610
S'extended_fuses'
p611
S'0x00'
p612
sS'high_fuses'
p613
S'0xdd'
p614
sS'low_fuses'
p615
S'0xff'
p616
sS'lock_bits'
p617
S'0x0F'
p618
sS'file'
p619
S'ATmegaBOOT_168_ng.hex'
p620
sS'path'
p621
S'atmega'
p622
sS'unlock_bits'
p623
S'0x3F'
p624
ssS'upload'
p625
(dp626
S'protocol'
p627
S'arduino'
p628
sS'maximum_size'
p629
S'14336'
p630
sS'speed'
p631
S'19200'
p632
ssS'build'
p633
(dp634
S'core'
p635
S'arduino'
p636
sS'mcu'
p637
S'atmega168'
p638
sS'f_cpu'
p639
S'16000000L'
p640
sS'variant'
p641
S'eightanaloginputs'
p642
ssS'name'
p643
S'Arduino Mini w/ ATmega168'
p644
saa(lp645
S'ethernet'
p646
a(dp647
S'bootloader'
p648
(dp649
S'extended_fuses'
p650
S'0x05'
p651
sS'high_fuses'
p652
S'0xde'
p653
sS'low_fuses'
p654
S'0xff'
p655
sS'lock_bits'
p656
S'0x0F'
p657
sS'file'
p658
S'optiboot_atmega328.hex'
p659
sS'path'
p660
S'optiboot'
p661
sS'unlock_bits'
p662
S'0x3F'
p663
ssS'upload'
p664
(dp665
S'protocol'
p666
S'arduino'
p667
sS'maximum_size'
p668
S'32256'
p669
sS'speed'
p670
S'115200'
p671
ssS'build'
p672
(dp673
S'variant'
p674
S'standard'
p675
sS'mcu'
p676
S'atmega328p'
p677
sS'f_cpu'
p678
S'16000000L'
p679
sS'core'
p680
S'arduino'
p681
ssS'name'
p682
S'Arduino Ethernet'
p683
saa(lp684
S'fio'
p685
a(dp686
S'bootloader'
p687
(dp688
S'extended_fuses'
p689
S'0x05'
p690
sS'high_fuses'
p691
S'0xDA'
p692
sS'low_fuses'
p693
S'0xFF'
p694
sS'lock_bits'
p695
S'0x0F'
p696
sS'file'
p697
S'ATmegaBOOT_168_atmega328_pro_8MHz.hex'
p698
sS'path'
p699
S'arduino:atmega'
p700
sS'unlock_bits'
p701
S'0x3F'
p702
ssS'upload'
p703
(dp704
S'protocol'
p705
S'arduino'
p706
sS'maximum_size'
p707
S'30720'
p708
sS'speed'
p709
S'57600'
p710
ssS'build'
p711
(dp712
S'core'
p713
S'arduino'
p714
sS'mcu'
p715
S'atmega328p'
p716
sS'f_cpu'
p717
S'8000000L'
p718
sS'variant'
p719
S'eightanaloginputs'
p720
ssS'name'
p721
S'Arduino Fio'
p722
saa(lp723
S'bt328'
p724
a(dp725
S'bootloader'
p726
(dp727
S'extended_fuses'
p728
S'0x05'
p729
sS'high_fuses'
p730
S'0xd8'
p731
sS'low_fuses'
p732
S'0xff'
p733
sS'lock_bits'
p734
S'0x0F'
p735
sS'file'
p736
S'ATmegaBOOT_168_atmega328_bt.hex'
p737
sS'path'
p738
S'bt'
p739
sS'unlock_bits'
p740
S'0x3F'
p741
ssS'upload'
p742
(dp743
S'protocol'
p744
S'arduino'
p745
sS'maximum_size'
p746
S'28672'
p747
sS'speed'
p748
S'19200'
p749
sS'disable_flushing'
p750
S'true'
p751
ssS'build'
p752
(dp753
S'core'
p754
S'arduino'
p755
sS'mcu'
p756
S'atmega328p'
p757
sS'f_cpu'
p758
S'16000000L'
p759
sS'variant'
p760
S'eightanaloginputs'
p761
ssS'name'
p762
S'Arduino BT w/ ATmega328'
p763
saa(lp764
S'bt'
p765
a(dp766
S'bootloader'
p767
(dp768
S'extended_fuses'
p769
S'0x00'
p770
sS'high_fuses'
p771
S'0xdd'
p772
sS'low_fuses'
p773
S'0xff'
p774
sS'lock_bits'
p775
S'0x0F'
p776
sS'file'
p777
S'ATmegaBOOT_168.hex'
p778
sS'path'
p779
S'bt'
p780
sS'unlock_bits'
p781
S'0x3F'
p782
ssS'upload'
p783
(dp784
S'protocol'
p785
S'arduino'
p786
sS'maximum_size'
p787
S'14336'
p788
sS'speed'
p789
S'19200'
p790
sS'disable_flushing'
p791
S'true'
p792
ssS'build'
p793
(dp794
S'core'
p795
S'arduino'
p796
sS'mcu'
p797
S'atmega168'
p798
sS'f_cpu'
p799
S'16000000L'
p800
sS'variant'
p801
S'eightanaloginputs'
p802
ssS'name'
p803
S'Arduino BT w/ ATmega168'
p804
saa(lp805
S'LilyPadUSB'
p806
a(dp807
S'bootloader'
p808
(dp809
S'extended_fuses'
p810
S'0xce'
p811
sS'high_fuses'
p812
S'0xd8'
p813
sS'low_fuses'
p814
S'0xff'
p815
sS'lock_bits'
p816
S'0x2F'
p817
sS'file'
p818
S'Caterina-LilyPadUSB.hex'
p819
sS'path'
p820
S'caterina-LilyPadUSB'
p821
sS'unlock_bits'
p822
S'0x3F'
p823
ssS'upload'
p824
(dp825
S'protocol'
p826
S'avr109'
p827
sS'maximum_size'
p828
S'28672'
p829
sS'speed'
p830
S'57600'
p831
sS'disable_flushing'
p832
S'true'
p833
ssS'build'
p834
(dp835
S'core'
p836
S'arduino'
p837
sS'f_cpu'
p838
S'8000000L'
p839
sS'vid'
p840
S'0x1B4F'
p841
sS'pid'
p842
S'0x9208'
p843
sS'variant'
p844
S'leonardo'
p845
sS'mcu'
p846
S'atmega32u4'
p847
ssS'name'
p848
S'LilyPad Arduino USB'
p849
saa(lp850
S'lilypad328'
p851
a(dp852
S'bootloader'
p853
(dp854
S'extended_fuses'
p855
S'0x05'
p856
sS'high_fuses'
p857
S'0xDA'
p858
sS'low_fuses'
p859
S'0xFF'
p860
sS'lock_bits'
p861
S'0x0F'
p862
sS'file'
p863
S'ATmegaBOOT_168_atmega328_pro_8MHz.hex'
p864
sS'path'
p865
S'atmega'
p866
sS'unlock_bits'
p867
S'0x3F'
p868
ssS'upload'
p869
(dp870
S'protocol'
p871
S'arduino'
p872
sS'maximum_size'
p873
S'30720'
p874
sS'speed'
p875
S'57600'
p876
ssS'build'
p877
(dp878
S'core'
p879
S'arduino'
p880
sS'mcu'
p881
S'atmega328p'
p882
sS'f_cpu'
p883
S'8000000L'
p884
sS'variant'
p885
S'standard'
p886
ssS'name'
p887
S'LilyPad Arduino w/ ATmega328'
p888
saa(lp889
S'lilypad'
p890
a(dp891
S'bootloader'
p892
(dp893
S'extended_fuses'
p894
S'0x00'
p895
sS'high_fuses'
p896
S'0xdd'
p897
sS'low_fuses'
p898
S'0xe2'
p899
sS'lock_bits'
p900
S'0x0F'
p901
sS'file'
p902
S'LilyPadBOOT_168.hex'
p903
sS'path'
p904
S'lilypad'
p905
sS'unlock_bits'
p906
S'0x3F'
p907
ssS'upload'
p908
(dp909
S'protocol'
p910
S'arduino'
p911
sS'maximum_size'
p912
S'14336'
p913
sS'speed'
p914
S'19200'
p915
ssS'build'
p916
(dp917
S'core'
p918
S'arduino'
p919
sS'mcu'
p920
S'atmega168'
p921
sS'f_cpu'
p922
S'8000000L'
p923
sS'variant'
p924
S'standard'
p925
ssS'name'
p926
S'LilyPad Arduino w/ ATmega168'
p927
saa(lp928
S'pro5v328'
p929
a(dp930
S'bootloader'
p931
(dp932
S'extended_fuses'
p933
S'0x05'
p934
sS'high_fuses'
p935
S'0xDA'
p936
sS'low_fuses'
p937
S'0xFF'
p938
sS'lock_bits'
p939
S'0x0F'
p940
sS'file'
p941
S'ATmegaBOOT_168_atmega328.hex'
p942
sS'path'
p943
S'atmega'
p944
sS'unlock_bits'
p945
S'0x3F'
p946
ssS'upload'
p947
(dp948
S'protocol'
p949
S'arduino'
p950
sS'maximum_size'
p951
S'30720'
p952
sS'speed'
p953
S'57600'
p954
ssS'build'
p955
(dp956
S'core'
p957
S'arduino'
p958
sS'mcu'
p959
S'atmega328p'
p960
sS'f_cpu'
p961
S'16000000L'
p962
sS'variant'
p963
S'standard'
p964
ssS'name'
p965
S'Arduino Pro or Pro Mini (5V, 16 MHz) w/ ATmega328'
p966
saa(lp967
S'pro5v'
p968
a(dp969
S'bootloader'
p970
(dp971
S'extended_fuses'
p972
S'0x00'
p973
sS'high_fuses'
p974
S'0xdd'
p975
sS'low_fuses'
p976
S'0xff'
p977
sS'lock_bits'
p978
S'0x0F'
p979
sS'file'
p980
S'ATmegaBOOT_168_diecimila.hex'
p981
sS'path'
p982
S'atmega'
p983
sS'unlock_bits'
p984
S'0x3F'
p985
ssS'upload'
p986
(dp987
S'protocol'
p988
S'arduino'
p989
sS'maximum_size'
p990
S'14336'
p991
sS'speed'
p992
S'19200'
p993
ssS'build'
p994
(dp995
S'core'
p996
S'arduino'
p997
sS'mcu'
p998
S'atmega168'
p999
sS'f_cpu'
p1000
S'16000000L'
p1001
sS'variant'
p1002
S'standard'
p1003
ssS'name'
p1004
S'Arduino Pro or Pro Mini (5V, 16 MHz) w/ ATmega168'
p1005
saa(lp1006
S'pro328'
p1007
a(dp1008
S'bootloader'
p1009
(dp1010
S'extended_fuses'
p1011
S'0x05'
p1012
sS'high_fuses'
p1013
S'0xDA'
p1014
sS'low_fuses'
p1015
S'0xFF'
p1016
sS'lock_bits'
p1017
S'0x0F'
p1018
sS'file'
p1019
S'ATmegaBOOT_168_atmega328_pro_8MHz.hex'
p1020
sS'path'
p1021
S'atmega'
p1022
sS'unlock_bits'
p1023
S'0x3F'
p1024
ssS'upload'
p1025
(dp1026
S'protocol'
p1027
S'arduino'
p1028
sS'maximum_size'
p1029
S'30720'
p1030
sS'speed'
p1031
S'57600'
p1032
ssS'build'
p1033
(dp1034
S'core'
p1035
S'arduino'
p1036
sS'mcu'
p1037
S'atmega328p'
p1038
sS'f_cpu'
p1039
S'8000000L'
p1040
sS'variant'
p1041
S'standard'
p1042
ssS'name'
p1043
S'Arduino Pro or Pro Mini (3.3V, 8 MHz) w/ ATmega328'
p1044
saa(lp1045
S'pro'
p1046
a(dp1047
S'bootloader'
p1048
(dp1049
S'extended_fuses'
p1050
S'0x00'
p1051
sS'high_fuses'
p1052
S'0xdd'
p1053
sS'low_fuses'
p1054
S'0xc6'
p1055
sS'lock_bits'
p1056
S'0x0F'
p1057
sS'file'
p1058
S'ATmegaBOOT_168_pro_8MHz.hex'
p1059
sS'path'
p1060
S'atmega'
p1061
sS'unlock_bits'
p1062
S'0x3F'
p1063
ssS'upload'
p1064
(dp1065
S'protocol'
p1066
S'arduino'
p1067
sS'maximum_size'
p1068
S'14336'
p1069
sS'speed'
p1070
S'19200'
p1071
ssS'build'
p1072
(dp1073
S'core'
p1074
S'arduino'
p1075
sS'mcu'
p1076
S'atmega168'
p1077
sS'f_cpu'
p1078
S'8000000L'
p1079
sS'variant'
p1080
S'standard'
p1081
ssS'name'
p1082
S'Arduino Pro or Pro Mini (3.3V, 8 MHz) w/ ATmega168'
p1083
saa(lp1084
S'atmega168'
p1085
a(dp1086
S'bootloader'
p1087
(dp1088
S'extended_fuses'
p1089
S'0x00'
p1090
sS'high_fuses'
p1091
S'0xdd'
p1092
sS'low_fuses'
p1093
S'0xff'
p1094
sS'lock_bits'
p1095
S'0x0F'
p1096
sS'file'
p1097
S'ATmegaBOOT_168_ng.hex'
p1098
sS'path'
p1099
S'atmega'
p1100
sS'unlock_bits'
p1101
S'0x3F'
p1102
ssS'upload'
p1103
(dp1104
S'protocol'
p1105
S'arduino'
p1106
sS'maximum_size'
p1107
S'14336'
p1108
sS'speed'
p1109
S'19200'
p1110
ssS'build'
p1111
(dp1112
S'core'
p1113
S'arduino'
p1114
sS'mcu'
p1115
S'atmega168'
p1116
sS'f_cpu'
p1117
S'16000000L'
p1118
sS'variant'
p1119
S'standard'
p1120
ssS'name'
p1121
S'Arduino NG or older w/ ATmega168'
p1122
saa(lp1123
S'atmega8'
p1124
a(dp1125
S'bootloader'
p1126
(dp1127
S'high_fuses'
p1128
S'0xca'
p1129
sS'low_fuses'
p1130
S'0xdf'
p1131
sS'lock_bits'
p1132
S'0x0F'
p1133
sS'file'
p1134
S'ATmegaBOOT-prod-firmware-2009-11-07.hex'
p1135
sS'path'
p1136
S'atmega8'
p1137
sS'unlock_bits'
p1138
S'0x3F'
p1139
ssS'upload'
p1140
(dp1141
S'protocol'
p1142
S'arduino'
p1143
sS'maximum_size'
p1144
S'7168'
p1145
sS'speed'
p1146
S'19200'
p1147
ssS'build'
p1148
(dp1149
S'core'
p1150
S'arduino'
p1151
sS'mcu'
p1152
S'atmega8'
p1153
sS'f_cpu'
p1154
S'16000000L'
p1155
sS'variant'
p1156
S'standard'
p1157
ssS'name'
p1158
S'Arduino NG or older w/ ATmega8'
p1159
saa(lp1160
S'robotControl'
p1161
a(dp1162
S'bootloader'
p1163
(dp1164
S'extended_fuses'
p1165
S'0xcb'
p1166
sS'high_fuses'
p1167
S'0xd8'
p1168
sS'low_fuses'
p1169
S'0xff'
p1170
sS'lock_bits'
p1171
S'0x2F'
p1172
sS'file'
p1173
S'Caterina-Robot-Control.hex'
p1174
sS'path'
p1175
S'caterina-Arduino_Robot'
p1176
sS'unlock_bits'
p1177
S'0x3F'
p1178
ssS'upload'
p1179
(dp1180
S'protocol'
p1181
S'avr109'
p1182
sS'maximum_size'
p1183
S'28672'
p1184
sS'speed'
p1185
S'57600'
p1186
sS'disable_flushing'
p1187
S'true'
p1188
ssS'build'
p1189
(dp1190
S'core'
p1191
S'robot'
p1192
sS'f_cpu'
p1193
S'16000000L'
p1194
sS'vid'
p1195
S'0x2341'
p1196
sS'pid'
p1197
S'0x8038'
p1198
sS'variant'
p1199
S'robot_control'
p1200
sS'mcu'
p1201
S'atmega32u4'
p1202
ssS'name'
p1203
S'Arduino Robot Control'
p1204
saa(lp1205
S'robotMotor'
p1206
a(dp1207
S'bootloader'
p1208
(dp1209
S'extended_fuses'
p1210
S'0xcb'
p1211
sS'high_fuses'
p1212
S'0xd8'
p1213
sS'low_fuses'
p1214
S'0xff'
p1215
sS'lock_bits'
p1216
S'0x2F'
p1217
sS'file'
p1218
S'Caterina-Robot-Motor.hex'
p1219
sS'path'
p1220
S'caterina-Arduino_Robot'
p1221
sS'unlock_bits'
p1222
S'0x3F'
p1223
ssS'upload'
p1224
(dp1225
S'protocol'
p1226
S'avr109'
p1227
sS'maximum_size'
p1228
S'28672'
p1229
sS'speed'
p1230
S'57600'
p1231
sS'disable_flushing'
p1232
S'true'
p1233
ssS'build'
p1234
(dp1235
S'core'
p1236
S'robot'
p1237
sS'f_cpu'
p1238
S'16000000L'
p1239
sS'vid'
p1240
S'0x2341'
p1241
sS'pid'
p1242
S'0x8039'
p1243
sS'variant'
p1244
S'robot_motor'
p1245
sS'mcu'
p1246
S'atmega32u4'
p1247
ssS'name'
p1248
S'Arduino Robot Motor'
p1249
saatp1250
Rp1251
(dp1252
S'default'
p1253
S'uno'
p1254
sbtp1255
a(S'ldflags'
p1256
g2
(g3
g4
(lp1257
g6
aS'-Wl,-Os'
p1258
aS'-Wl,--gc-sections'
p1259
atp1260
Rp1261
tp1262
a.